# SymbolsHelper-Confirmed: 5.6.0 amd64
libQt53DRender.so.5 libqt53drender5 #MINVER#
 Qt_5.0@Qt_5.0 5.6.0
 Qt_5.1@Qt_5.1 5.6.0
 Qt_5.2@Qt_5.2 5.6.0
 Qt_5.3@Qt_5.3 5.6.0
 Qt_5.4@Qt_5.4 5.6.0
 Qt_5.5@Qt_5.5 5.6.0
 Qt_5.6@Qt_5.6 5.6.0
 Qt_5@Qt_5 5.6.0
 Qt_5_PRIVATE_API@Qt_5_PRIVATE_API 5.6.0
 _ZN10Qt3DRender10QAlphaTest11funcChangedENS0_9AlphaFuncE@Qt_5_PRIVATE_API 5.6.0
 _ZN10Qt3DRender10QAlphaTest11qt_metacallEN11QMetaObject4CallEiPPv@Qt_5 5.6.0
 _ZN10Qt3DRender10QAlphaTest11qt_metacastEPKc@Qt_5 5.6.0
 _ZN10Qt3DRender10QAlphaTest12clampChangedEf@Qt_5 5.6.0
 _ZN10Qt3DRender10QAlphaTest16staticMetaObjectE@Qt_5 5.6.0
 _ZN10Qt3DRender10QAlphaTest4copyEPKN8Qt3DCore5QNodeE@Qt_5 5.6.0
 _ZN10Qt3DRender10QAlphaTest7setFuncENS0_9AlphaFuncE@Qt_5_PRIVATE_API 5.6.0
 _ZN10Qt3DRender10QAlphaTest8setClampEf@Qt_5 5.6.0
 _ZN10Qt3DRender10QAlphaTestC1EPN8Qt3DCore5QNodeE@Qt_5 5.6.0
 _ZN10Qt3DRender10QAlphaTestC2EPN8Qt3DCore5QNodeE@Qt_5 5.6.0
 _ZN10Qt3DRender10QAlphaTestD0Ev@Qt_5 5.6.0
 _ZN10Qt3DRender10QAlphaTestD1Ev@Qt_5 5.6.0
 _ZN10Qt3DRender10QAlphaTestD2Ev@Qt_5 5.6.0
 _ZN10Qt3DRender10QAttribute11qt_metacallEN11QMetaObject4CallEiPPv@Qt_5 5.6.0
 _ZN10Qt3DRender10QAttribute11qt_metacastEPKc@Qt_5 5.6.0
 _ZN10Qt3DRender10QAttribute16staticMetaObjectE@Qt_5 5.6.0
 _ZN10Qt3DRender10QAttribute25defaultColorAttributeNameEv@Qt_5 5.6.0
 _ZN10Qt3DRender10QAttribute26defaultNormalAttributeNameEv@Qt_5 5.6.0
 _ZN10Qt3DRender10QAttribute27defaultTangentAttributeNameEv@Qt_5 5.6.0
 _ZN10Qt3DRender10QAttribute28defaultPositionAttributeNameEv@Qt_5 5.6.0
 _ZN10Qt3DRender10QAttribute37defaultTextureCoordinateAttributeNameEv@Qt_5 5.6.0
 _ZN10Qt3DRender10QAttribute4copyEPKN8Qt3DCore5QNodeE@Qt_5 5.6.0
 _ZN10Qt3DRender10QAttribute4dumpEi@Qt_5 5.6.0
 _ZN10Qt3DRender10QAttributeC1EPN8Qt3DCore5QNodeE@Qt_5 5.6.0
 _ZN10Qt3DRender10QAttributeC1EPNS_7QBufferENS_18QAbstractAttribute8DataTypeEjiii@Qt_5 5.6.0
 _ZN10Qt3DRender10QAttributeC1EPNS_7QBufferERK7QStringNS_18QAbstractAttribute8DataTypeEjiii@Qt_5 5.6.0
 _ZN10Qt3DRender10QAttributeC2EPN8Qt3DCore5QNodeE@Qt_5 5.6.0
 _ZN10Qt3DRender10QAttributeC2EPNS_7QBufferENS_18QAbstractAttribute8DataTypeEjiii@Qt_5 5.6.0
 _ZN10Qt3DRender10QAttributeC2EPNS_7QBufferERK7QStringNS_18QAbstractAttribute8DataTypeEjiii@Qt_5 5.6.0
 _ZN10Qt3DRender10QAttributeD0Ev@Qt_5 5.6.0
 _ZN10Qt3DRender10QAttributeD1Ev@Qt_5 5.6.0
 _ZN10Qt3DRender10QAttributeD2Ev@Qt_5 5.6.0
 _ZN10Qt3DRender10QClipPlane11qt_metacallEN11QMetaObject4CallEiPPv@Qt_5 5.6.0
 _ZN10Qt3DRender10QClipPlane11qt_metacastEPKc@Qt_5 5.6.0
 _ZN10Qt3DRender10QClipPlane12planeChangedEi@Qt_5 5.6.0
 _ZN10Qt3DRender10QClipPlane16staticMetaObjectE@Qt_5 5.6.0
 _ZN10Qt3DRender10QClipPlane4copyEPKN8Qt3DCore5QNodeE@Qt_5 5.6.0
 _ZN10Qt3DRender10QClipPlane8setPlaneEi@Qt_5 5.6.0
 _ZN10Qt3DRender10QClipPlaneC1EPN8Qt3DCore5QNodeE@Qt_5 5.6.0
 _ZN10Qt3DRender10QClipPlaneC2EPN8Qt3DCore5QNodeE@Qt_5 5.6.0
 _ZN10Qt3DRender10QClipPlaneD0Ev@Qt_5 5.6.0
 _ZN10Qt3DRender10QClipPlaneD1Ev@Qt_5 5.6.0
 _ZN10Qt3DRender10QClipPlaneD2Ev@Qt_5 5.6.0
 _ZN10Qt3DRender10QColorMask10redChangedEb@Qt_5 5.6.0
 _ZN10Qt3DRender10QColorMask11blueChangedEb@Qt_5 5.6.0
 _ZN10Qt3DRender10QColorMask11qt_metacallEN11QMetaObject4CallEiPPv@Qt_5 5.6.0
 _ZN10Qt3DRender10QColorMask11qt_metacastEPKc@Qt_5 5.6.0
 _ZN10Qt3DRender10QColorMask12alphaChangedEb@Qt_5 5.6.0
 _ZN10Qt3DRender10QColorMask12greenChangedEb@Qt_5 5.6.0
 _ZN10Qt3DRender10QColorMask16staticMetaObjectE@Qt_5 5.6.0
 _ZN10Qt3DRender10QColorMask4copyEPKN8Qt3DCore5QNodeE@Qt_5 5.6.0
 _ZN10Qt3DRender10QColorMask6setRedEb@Qt_5 5.6.0
 _ZN10Qt3DRender10QColorMask7setBlueEb@Qt_5 5.6.0
 _ZN10Qt3DRender10QColorMask8setAlphaEb@Qt_5 5.6.0
 _ZN10Qt3DRender10QColorMask8setGreenEb@Qt_5 5.6.0
 _ZN10Qt3DRender10QColorMaskC1EPN8Qt3DCore5QNodeE@Qt_5 5.6.0
 _ZN10Qt3DRender10QColorMaskC2EPN8Qt3DCore5QNodeE@Qt_5 5.6.0
 _ZN10Qt3DRender10QColorMaskD0Ev@Qt_5 5.6.0
 _ZN10Qt3DRender10QColorMaskD1Ev@Qt_5 5.6.0
 _ZN10Qt3DRender10QColorMaskD2Ev@Qt_5 5.6.0
 _ZN10Qt3DRender10QDepthMask11maskChangedEb@Qt_5 5.6.0
 _ZN10Qt3DRender10QDepthMask11qt_metacallEN11QMetaObject4CallEiPPv@Qt_5 5.6.0
 _ZN10Qt3DRender10QDepthMask11qt_metacastEPKc@Qt_5 5.6.0
 _ZN10Qt3DRender10QDepthMask16staticMetaObjectE@Qt_5 5.6.0
 _ZN10Qt3DRender10QDepthMask4copyEPKN8Qt3DCore5QNodeE@Qt_5 5.6.0
 _ZN10Qt3DRender10QDepthMask7setMaskEb@Qt_5 5.6.0
 _ZN10Qt3DRender10QDepthMaskC1EPN8Qt3DCore5QNodeE@Qt_5 5.6.0
 _ZN10Qt3DRender10QDepthMaskC2EPN8Qt3DCore5QNodeE@Qt_5 5.6.0
 _ZN10Qt3DRender10QDepthMaskD0Ev@Qt_5 5.6.0
 _ZN10Qt3DRender10QDepthMaskD1Ev@Qt_5 5.6.0
 _ZN10Qt3DRender10QDepthMaskD2Ev@Qt_5 5.6.0
 _ZN10Qt3DRender10QDepthTest11funcChangedENS0_9DepthFuncE@Qt_5 5.6.0
 _ZN10Qt3DRender10QDepthTest11qt_metacallEN11QMetaObject4CallEiPPv@Qt_5 5.6.0
 _ZN10Qt3DRender10QDepthTest11qt_metacastEPKc@Qt_5 5.6.0
 _ZN10Qt3DRender10QDepthTest16staticMetaObjectE@Qt_5 5.6.0
 _ZN10Qt3DRender10QDepthTest4copyEPKN8Qt3DCore5QNodeE@Qt_5 5.6.0
 _ZN10Qt3DRender10QDepthTest7setFuncENS0_9DepthFuncE@Qt_5 5.6.0
 _ZN10Qt3DRender10QDepthTestC1EPN8Qt3DCore5QNodeE@Qt_5 5.6.0
 _ZN10Qt3DRender10QDepthTestC2EPN8Qt3DCore5QNodeE@Qt_5 5.6.0
 _ZN10Qt3DRender10QDepthTestD0Ev@Qt_5 5.6.0
 _ZN10Qt3DRender10QDepthTestD1Ev@Qt_5 5.6.0
 _ZN10Qt3DRender10QDepthTestD2Ev@Qt_5 5.6.0
 _ZN10Qt3DRender10QDithering11qt_metacallEN11QMetaObject4CallEiPPv@Qt_5 5.6.0
 _ZN10Qt3DRender10QDithering11qt_metacastEPKc@Qt_5 5.6.0
 _ZN10Qt3DRender10QDithering16staticMetaObjectE@Qt_5 5.6.0
 _ZN10Qt3DRender10QDitheringC1EPN8Qt3DCore5QNodeE@Qt_5 5.6.0
 _ZN10Qt3DRender10QDitheringC2EPN8Qt3DCore5QNodeE@Qt_5 5.6.0
 _ZN10Qt3DRender10QDitheringD0Ev@Qt_5 5.6.0
 _ZN10Qt3DRender10QDitheringD1Ev@Qt_5 5.6.0
 _ZN10Qt3DRender10QDitheringD2Ev@Qt_5 5.6.0
 _ZN10Qt3DRender10QFrontFace11qt_metacallEN11QMetaObject4CallEiPPv@Qt_5 5.6.0
 _ZN10Qt3DRender10QFrontFace11qt_metacastEPKc@Qt_5 5.6.0
 _ZN10Qt3DRender10QFrontFace12setDirectionENS0_7FaceDirE@Qt_5 5.6.0
 _ZN10Qt3DRender10QFrontFace16directionChangedENS0_7FaceDirE@Qt_5 5.6.0
 _ZN10Qt3DRender10QFrontFace16staticMetaObjectE@Qt_5 5.6.0
 _ZN10Qt3DRender10QFrontFace4copyEPKN8Qt3DCore5QNodeE@Qt_5 5.6.0
 _ZN10Qt3DRender10QFrontFaceC1EPN8Qt3DCore5QNodeE@Qt_5 5.6.0
 _ZN10Qt3DRender10QFrontFaceC2EPN8Qt3DCore5QNodeE@Qt_5 5.6.0
 _ZN10Qt3DRender10QFrontFaceD0Ev@Qt_5 5.6.0
 _ZN10Qt3DRender10QFrontFaceD1Ev@Qt_5 5.6.0
 _ZN10Qt3DRender10QFrontFaceD2Ev@Qt_5 5.6.0
 _ZN10Qt3DRender10QParameter11nameChangedERK7QString@Qt_5 5.6.0
 _ZN10Qt3DRender10QParameter11qt_metacallEN11QMetaObject4CallEiPPv@Qt_5 5.6.0
 _ZN10Qt3DRender10QParameter11qt_metacastEPKc@Qt_5 5.6.0
 _ZN10Qt3DRender10QParameter12valueChangedERK8QVariant@Qt_5 5.6.0
 _ZN10Qt3DRender10QParameter16staticMetaObjectE@Qt_5 5.6.0
 _ZN10Qt3DRender10QParameter4copyEPKN8Qt3DCore5QNodeE@Qt_5 5.6.0
 _ZN10Qt3DRender10QParameter7setNameERK7QString@Qt_5 5.6.0
 _ZN10Qt3DRender10QParameter8setValueERK8QVariant@Qt_5 5.6.0
 _ZN10Qt3DRender10QParameterC1EPN8Qt3DCore5QNodeE@Qt_5 5.6.0
 _ZN10Qt3DRender10QParameterC1ERK7QStringPNS_24QAbstractTextureProviderEPN8Qt3DCore5QNodeE@Qt_5 5.6.0
 _ZN10Qt3DRender10QParameterC1ERK7QStringRK8QVariantPN8Qt3DCore5QNodeE@Qt_5 5.6.0
 _ZN10Qt3DRender10QParameterC1ERNS_17QParameterPrivateEPN8Qt3DCore5QNodeE@Qt_5 5.6.0
 _ZN10Qt3DRender10QParameterC2EPN8Qt3DCore5QNodeE@Qt_5 5.6.0
 _ZN10Qt3DRender10QParameterC2ERK7QStringPNS_24QAbstractTextureProviderEPN8Qt3DCore5QNodeE@Qt_5 5.6.0
 _ZN10Qt3DRender10QParameterC2ERK7QStringRK8QVariantPN8Qt3DCore5QNodeE@Qt_5 5.6.0
 _ZN10Qt3DRender10QParameterC2ERNS_17QParameterPrivateEPN8Qt3DCore5QNodeE@Qt_5 5.6.0
 _ZN10Qt3DRender10QParameterD0Ev@Qt_5 5.6.0
 _ZN10Qt3DRender10QParameterD1Ev@Qt_5 5.6.0
 _ZN10Qt3DRender10QParameterD2Ev@Qt_5 5.6.0
 _ZN10Qt3DRender10QPickEvent11qt_metacallEN11QMetaObject4CallEiPPv@Qt_5 5.6.0
 _ZN10Qt3DRender10QPickEvent11qt_metacastEPKc@Qt_5 5.6.0
 _ZN10Qt3DRender10QPickEvent11setAcceptedEb@Qt_5 5.6.0
 _ZN10Qt3DRender10QPickEvent15acceptedChangedEb@Qt_5 5.6.0
 _ZN10Qt3DRender10QPickEvent16staticMetaObjectE@Qt_5 5.6.0
 _ZN10Qt3DRender10QPickEventC1Ev@Qt_5 5.6.0
 _ZN10Qt3DRender10QPickEventC2Ev@Qt_5 5.6.0
 _ZN10Qt3DRender10QPickEventD0Ev@Qt_5 5.6.0
 _ZN10Qt3DRender10QPickEventD1Ev@Qt_5 5.6.0
 _ZN10Qt3DRender10QPickEventD2Ev@Qt_5 5.6.0
 _ZN10Qt3DRender10QPlaneMesh11qt_metacallEN11QMetaObject4CallEiPPv@Qt_5 5.6.0
 _ZN10Qt3DRender10QPlaneMesh11qt_metacastEPKc@Qt_5 5.6.0
 _ZN10Qt3DRender10QPlaneMesh12widthChangedEf@Qt_5 5.6.0
 _ZN10Qt3DRender10QPlaneMesh13heightChangedEf@Qt_5 5.6.0
 _ZN10Qt3DRender10QPlaneMesh16staticMetaObjectE@Qt_5 5.6.0
 _ZN10Qt3DRender10QPlaneMesh17setMeshResolutionERK5QSize@Qt_5 5.6.0
 _ZN10Qt3DRender10QPlaneMesh21meshResolutionChangedERK5QSize@Qt_5 5.6.0
 _ZN10Qt3DRender10QPlaneMesh8setWidthEf@Qt_5 5.6.0
 _ZN10Qt3DRender10QPlaneMesh9setHeightEf@Qt_5 5.6.0
 _ZN10Qt3DRender10QPlaneMeshC1EPN8Qt3DCore5QNodeE@Qt_5 5.6.0
 _ZN10Qt3DRender10QPlaneMeshC2EPN8Qt3DCore5QNodeE@Qt_5 5.6.0
 _ZN10Qt3DRender10QPlaneMeshD0Ev@Qt_5 5.6.0
 _ZN10Qt3DRender10QPlaneMeshD1Ev@Qt_5 5.6.0
 _ZN10Qt3DRender10QPlaneMeshD2Ev@Qt_5 5.6.0
 _ZN10Qt3DRender10QPointSize11qt_metacallEN11QMetaObject4CallEiPPv@Qt_5 5.6.0
 _ZN10Qt3DRender10QPointSize11qt_metacastEPKc@Qt_5 5.6.0
 _ZN10Qt3DRender10QPointSize12valueChangedEf@Qt_5 5.6.0
 _ZN10Qt3DRender10QPointSize16setSpecificationENS0_13SpecificationE@Qt_5 5.6.0
 _ZN10Qt3DRender10QPointSize16staticMetaObjectE@Qt_5 5.6.0
 _ZN10Qt3DRender10QPointSize20specificationChangedENS0_13SpecificationE@Qt_5 5.6.0
 _ZN10Qt3DRender10QPointSize4copyEPKN8Qt3DCore5QNodeE@Qt_5 5.6.0
 _ZN10Qt3DRender10QPointSize8setValueEf@Qt_5 5.6.0
 _ZN10Qt3DRender10QPointSizeC1EPN8Qt3DCore5QNodeE@Qt_5 5.6.0
 _ZN10Qt3DRender10QPointSizeC2EPN8Qt3DCore5QNodeE@Qt_5 5.6.0
 _ZN10Qt3DRender10QPointSizeD0Ev@Qt_5 5.6.0
 _ZN10Qt3DRender10QPointSizeD1Ev@Qt_5 5.6.0
 _ZN10Qt3DRender10QPointSizeD2Ev@Qt_5 5.6.0
 _ZN10Qt3DRender10QSpotLight11qt_metacallEN11QMetaObject4CallEiPPv@Qt_5 5.6.0
 _ZN10Qt3DRender10QSpotLight11qt_metacastEPKc@Qt_5 5.6.0
 _ZN10Qt3DRender10QSpotLight12setDirectionERK9QVector3D@Qt_5 5.6.0
 _ZN10Qt3DRender10QSpotLight14setCutOffAngleEf@Qt_5 5.6.0
 _ZN10Qt3DRender10QSpotLight16directionChangedERK9QVector3D@Qt_5 5.6.0
 _ZN10Qt3DRender10QSpotLight16staticMetaObjectE@Qt_5 5.6.0
 _ZN10Qt3DRender10QSpotLight18cutOffAngleChangedEf@Qt_5 5.6.0
 _ZN10Qt3DRender10QSpotLight4copyEPKN8Qt3DCore5QNodeE@Qt_5 5.6.0
 _ZN10Qt3DRender10QSpotLightC1EPN8Qt3DCore5QNodeE@Qt_5 5.6.0
 _ZN10Qt3DRender10QSpotLightC1ERNS_17QSpotLightPrivateEPN8Qt3DCore5QNodeE@Qt_5 5.6.0
 _ZN10Qt3DRender10QSpotLightC2EPN8Qt3DCore5QNodeE@Qt_5 5.6.0
 _ZN10Qt3DRender10QSpotLightC2ERNS_17QSpotLightPrivateEPN8Qt3DCore5QNodeE@Qt_5 5.6.0
 _ZN10Qt3DRender10QStencilOp11qt_metacallEN11QMetaObject4CallEiPPv@Qt_5 5.6.0
 _ZN10Qt3DRender10QStencilOp11qt_metacastEPKc@Qt_5 5.6.0
 _ZN10Qt3DRender10QStencilOp16staticMetaObjectE@Qt_5 5.6.0
 _ZN10Qt3DRender10QStencilOp4copyEPKN8Qt3DCore5QNodeE@Qt_5 5.6.0
 _ZN10Qt3DRender10QStencilOpC1EPN8Qt3DCore5QNodeE@Qt_5 5.6.0
 _ZN10Qt3DRender10QStencilOpC2EPN8Qt3DCore5QNodeE@Qt_5 5.6.0
 _ZN10Qt3DRender10QStencilOpD0Ev@Qt_5 5.6.0
 _ZN10Qt3DRender10QStencilOpD1Ev@Qt_5 5.6.0
 _ZN10Qt3DRender10QStencilOpD2Ev@Qt_5 5.6.0
 _ZN10Qt3DRender10QTechnique10removePassEPNS_11QRenderPassE@Qt_5 5.6.0
 _ZN10Qt3DRender10QTechnique11qt_metacallEN11QMetaObject4CallEiPPv@Qt_5 5.6.0
 _ZN10Qt3DRender10QTechnique11qt_metacastEPKc@Qt_5 5.6.0
 _ZN10Qt3DRender10QTechnique12addParameterEPNS_10QParameterE@Qt_5 5.6.0
 _ZN10Qt3DRender10QTechnique13addAnnotationEPNS_11QAnnotationE@Qt_5 5.6.0
 _ZN10Qt3DRender10QTechnique15removeParameterEPNS_10QParameterE@Qt_5 5.6.0
 _ZN10Qt3DRender10QTechnique16removeAnnotationEPNS_11QAnnotationE@Qt_5 5.6.0
 _ZN10Qt3DRender10QTechnique16staticMetaObjectE@Qt_5 5.6.0
 _ZN10Qt3DRender10QTechnique17graphicsApiFilterEv@Qt_5 5.6.0
 _ZN10Qt3DRender10QTechnique4copyEPKN8Qt3DCore5QNodeE@Qt_5 5.6.0
 _ZN10Qt3DRender10QTechnique7addPassEPNS_11QRenderPassE@Qt_5 5.6.0
 _ZN10Qt3DRender10QTechniqueC1EPN8Qt3DCore5QNodeE@Qt_5 5.6.0
 _ZN10Qt3DRender10QTechniqueC1ERNS_17QTechniquePrivateEPN8Qt3DCore5QNodeE@Qt_5 5.6.0
 _ZN10Qt3DRender10QTechniqueC2EPN8Qt3DCore5QNodeE@Qt_5 5.6.0
 _ZN10Qt3DRender10QTechniqueC2ERNS_17QTechniquePrivateEPN8Qt3DCore5QNodeE@Qt_5 5.6.0
 _ZN10Qt3DRender10QTechniqueD0Ev@Qt_5 5.6.0
 _ZN10Qt3DRender10QTechniqueD1Ev@Qt_5 5.6.0
 _ZN10Qt3DRender10QTechniqueD2Ev@Qt_5 5.6.0
 _ZN10Qt3DRender10QTexture1D11qt_metacallEN11QMetaObject4CallEiPPv@Qt_5 5.6.0
 _ZN10Qt3DRender10QTexture1D11qt_metacastEPKc@Qt_5 5.6.0
 _ZN10Qt3DRender10QTexture1D16staticMetaObjectE@Qt_5 5.6.0
 _ZN10Qt3DRender10QTexture1DC1EPN8Qt3DCore5QNodeE@Qt_5 5.6.0
 _ZN10Qt3DRender10QTexture1DC2EPN8Qt3DCore5QNodeE@Qt_5 5.6.0
 _ZN10Qt3DRender10QTexture1DD0Ev@Qt_5 5.6.0
 _ZN10Qt3DRender10QTexture1DD1Ev@Qt_5 5.6.0
 _ZN10Qt3DRender10QTexture1DD2Ev@Qt_5 5.6.0
 _ZN10Qt3DRender10QTexture2D11qt_metacallEN11QMetaObject4CallEiPPv@Qt_5 5.6.0
 _ZN10Qt3DRender10QTexture2D11qt_metacastEPKc@Qt_5 5.6.0
 _ZN10Qt3DRender10QTexture2D16staticMetaObjectE@Qt_5 5.6.0
 _ZN10Qt3DRender10QTexture2DC1EPN8Qt3DCore5QNodeE@Qt_5 5.6.0
 _ZN10Qt3DRender10QTexture2DC2EPN8Qt3DCore5QNodeE@Qt_5 5.6.0
 _ZN10Qt3DRender10QTexture2DD0Ev@Qt_5 5.6.0
 _ZN10Qt3DRender10QTexture2DD1Ev@Qt_5 5.6.0
 _ZN10Qt3DRender10QTexture2DD2Ev@Qt_5 5.6.0
 _ZN10Qt3DRender10QTexture3D11qt_metacallEN11QMetaObject4CallEiPPv@Qt_5 5.6.0
 _ZN10Qt3DRender10QTexture3D11qt_metacastEPKc@Qt_5 5.6.0
 _ZN10Qt3DRender10QTexture3D16staticMetaObjectE@Qt_5 5.6.0
 _ZN10Qt3DRender10QTexture3DC1EPN8Qt3DCore5QNodeE@Qt_5 5.6.0
 _ZN10Qt3DRender10QTexture3DC2EPN8Qt3DCore5QNodeE@Qt_5 5.6.0
 _ZN10Qt3DRender10QTexture3DD0Ev@Qt_5 5.6.0
 _ZN10Qt3DRender10QTexture3DD1Ev@Qt_5 5.6.0
 _ZN10Qt3DRender10QTexture3DD2Ev@Qt_5 5.6.0
 _ZN10Qt3DRender10QTorusMesh11qt_metacallEN11QMetaObject4CallEiPPv@Qt_5 5.6.0
 _ZN10Qt3DRender10QTorusMesh11qt_metacastEPKc@Qt_5 5.6.0
 _ZN10Qt3DRender10QTorusMesh12ringsChangedEi@Qt_5 5.6.0
 _ZN10Qt3DRender10QTorusMesh13radiusChangedEf@Qt_5 5.6.0
 _ZN10Qt3DRender10QTorusMesh13slicesChangedEi@Qt_5 5.6.0
 _ZN10Qt3DRender10QTorusMesh14setMinorRadiusEf@Qt_5 5.6.0
 _ZN10Qt3DRender10QTorusMesh16staticMetaObjectE@Qt_5 5.6.0
 _ZN10Qt3DRender10QTorusMesh18minorRadiusChangedEf@Qt_5 5.6.0
 _ZN10Qt3DRender10QTorusMesh8setRingsEi@Qt_5 5.6.0
 _ZN10Qt3DRender10QTorusMesh9setRadiusEf@Qt_5 5.6.0
 _ZN10Qt3DRender10QTorusMesh9setSlicesEi@Qt_5 5.6.0
 _ZN10Qt3DRender10QTorusMeshC1EPN8Qt3DCore5QNodeE@Qt_5 5.6.0
 _ZN10Qt3DRender10QTorusMeshC2EPN8Qt3DCore5QNodeE@Qt_5 5.6.0
 _ZN10Qt3DRender10QTorusMeshD0Ev@Qt_5 5.6.0
 _ZN10Qt3DRender10QTorusMeshD1Ev@Qt_5 5.6.0
 _ZN10Qt3DRender10QTorusMeshD2Ev@Qt_5 5.6.0
 _ZN10Qt3DRender10QUrlHelper19urlToLocalFileOrQrcERK4QUrl@Qt_5 5.6.0
 _ZN10Qt3DRender11QAnnotation11nameChangedERK7QString@Qt_5 5.6.0
 _ZN10Qt3DRender11QAnnotation11qt_metacallEN11QMetaObject4CallEiPPv@Qt_5 5.6.0
 _ZN10Qt3DRender11QAnnotation11qt_metacastEPKc@Qt_5 5.6.0
 _ZN10Qt3DRender11QAnnotation12valueChangedERK8QVariant@Qt_5 5.6.0
 _ZN10Qt3DRender11QAnnotation16staticMetaObjectE@Qt_5 5.6.0
 _ZN10Qt3DRender11QAnnotation4copyEPKN8Qt3DCore5QNodeE@Qt_5 5.6.0
 _ZN10Qt3DRender11QAnnotation7setNameERK7QString@Qt_5 5.6.0
 _ZN10Qt3DRender11QAnnotation8setValueERK8QVariant@Qt_5 5.6.0
 _ZN10Qt3DRender11QAnnotationC1EPN8Qt3DCore5QNodeE@Qt_5 5.6.0
 _ZN10Qt3DRender11QAnnotationC2EPN8Qt3DCore5QNodeE@Qt_5 5.6.0
 _ZN10Qt3DRender11QAnnotationD0Ev@Qt_5 5.6.0
 _ZN10Qt3DRender11QAnnotationD1Ev@Qt_5 5.6.0
 _ZN10Qt3DRender11QAnnotationD2Ev@Qt_5 5.6.0
 _ZN10Qt3DRender11QBlendState11qt_metacallEN11QMetaObject4CallEiPPv@Qt_5 5.6.0
 _ZN10Qt3DRender11QBlendState11qt_metacastEPKc@Qt_5 5.6.0
 _ZN10Qt3DRender11QBlendState11setDstAlphaENS0_8BlendingE@Qt_5 5.6.0
 _ZN10Qt3DRender11QBlendState11setSrcAlphaENS0_8BlendingE@Qt_5 5.6.0
 _ZN10Qt3DRender11QBlendState13dstRGBChangedENS0_8BlendingE@Qt_5 5.6.0
 _ZN10Qt3DRender11QBlendState13srcRGBChangedENS0_8BlendingE@Qt_5 5.6.0
 _ZN10Qt3DRender11QBlendState15dstAlphaChangedENS0_8BlendingE@Qt_5 5.6.0
 _ZN10Qt3DRender11QBlendState15srcAlphaChangedENS0_8BlendingE@Qt_5 5.6.0
 _ZN10Qt3DRender11QBlendState16staticMetaObjectE@Qt_5 5.6.0
 _ZN10Qt3DRender11QBlendState4copyEPKN8Qt3DCore5QNodeE@Qt_5 5.6.0
 _ZN10Qt3DRender11QBlendState9setDstRGBENS0_8BlendingE@Qt_5 5.6.0
 _ZN10Qt3DRender11QBlendState9setSrcRGBENS0_8BlendingE@Qt_5 5.6.0
 _ZN10Qt3DRender11QBlendStateC1ENS_12QRenderState4TypeEPN8Qt3DCore5QNodeE@Qt_5 5.6.0
 _ZN10Qt3DRender11QBlendStateC1EPN8Qt3DCore5QNodeE@Qt_5 5.6.0
 _ZN10Qt3DRender11QBlendStateC2ENS_12QRenderState4TypeEPN8Qt3DCore5QNodeE@Qt_5 5.6.0
 _ZN10Qt3DRender11QBlendStateC2EPN8Qt3DCore5QNodeE@Qt_5 5.6.0
 _ZN10Qt3DRender11QBlendStateD0Ev@Qt_5 5.6.0
 _ZN10Qt3DRender11QBlendStateD1Ev@Qt_5 5.6.0
 _ZN10Qt3DRender11QBlendStateD2Ev@Qt_5 5.6.0
 _ZN10Qt3DRender11QCuboidMesh10setXExtentEf@Qt_5 5.6.0
 _ZN10Qt3DRender11QCuboidMesh10setYExtentEf@Qt_5 5.6.0
 _ZN10Qt3DRender11QCuboidMesh10setZExtentEf@Qt_5 5.6.0
 _ZN10Qt3DRender11QCuboidMesh11qt_metacallEN11QMetaObject4CallEiPPv@Qt_5 5.6.0
 _ZN10Qt3DRender11QCuboidMesh11qt_metacastEPKc@Qt_5 5.6.0
 _ZN10Qt3DRender11QCuboidMesh14xExtentChangedEf@Qt_5 5.6.0
 _ZN10Qt3DRender11QCuboidMesh14yExtentChangedEf@Qt_5 5.6.0
 _ZN10Qt3DRender11QCuboidMesh14zExtentChangedEf@Qt_5 5.6.0
 _ZN10Qt3DRender11QCuboidMesh16staticMetaObjectE@Qt_5 5.6.0
 _ZN10Qt3DRender11QCuboidMesh19setXYMeshResolutionERK5QSize@Qt_5 5.6.0
 _ZN10Qt3DRender11QCuboidMesh19setXZMeshResolutionERK5QSize@Qt_5 5.6.0
 _ZN10Qt3DRender11QCuboidMesh19setYZMeshResolutionERK5QSize@Qt_5 5.6.0
 _ZN10Qt3DRender11QCuboidMesh23xyMeshResolutionChangedERK5QSize@Qt_5 5.6.0
 _ZN10Qt3DRender11QCuboidMesh23xzMeshResolutionChangedERK5QSize@Qt_5 5.6.0
 _ZN10Qt3DRender11QCuboidMesh23yzMeshResolutionChangedERK5QSize@Qt_5 5.6.0
 _ZN10Qt3DRender11QCuboidMeshC1EPN8Qt3DCore5QNodeE@Qt_5 5.6.0
 _ZN10Qt3DRender11QCuboidMeshC2EPN8Qt3DCore5QNodeE@Qt_5 5.6.0
 _ZN10Qt3DRender11QCuboidMeshD0Ev@Qt_5 5.6.0
 _ZN10Qt3DRender11QCuboidMeshD1Ev@Qt_5 5.6.0
 _ZN10Qt3DRender11QCuboidMeshD2Ev@Qt_5 5.6.0
 _ZN10Qt3DRender11QFrameGraph11qt_metacallEN11QMetaObject4CallEiPPv@Qt_5 5.6.0
 _ZN10Qt3DRender11QFrameGraph11qt_metacastEPKc@Qt_5 5.6.0
 _ZN10Qt3DRender11QFrameGraph16staticMetaObjectE@Qt_5 5.6.0
 _ZN10Qt3DRender11QFrameGraph19setActiveFrameGraphEPNS_15QFrameGraphNodeE@Qt_5 5.6.0
 _ZN10Qt3DRender11QFrameGraph23activeFrameGraphChangedEPNS_15QFrameGraphNodeE@Qt_5 5.6.0
 _ZN10Qt3DRender11QFrameGraph4copyEPKN8Qt3DCore5QNodeE@Qt_5 5.6.0
 _ZN10Qt3DRender11QFrameGraphC1EPN8Qt3DCore5QNodeE@Qt_5 5.6.0
 _ZN10Qt3DRender11QFrameGraphC1ERNS_18QFrameGraphPrivateEPN8Qt3DCore5QNodeE@Qt_5 5.6.0
 _ZN10Qt3DRender11QFrameGraphC2EPN8Qt3DCore5QNodeE@Qt_5 5.6.0
 _ZN10Qt3DRender11QFrameGraphC2ERNS_18QFrameGraphPrivateEPN8Qt3DCore5QNodeE@Qt_5 5.6.0
 _ZN10Qt3DRender11QFrameGraphD0Ev@Qt_5 5.6.0
 _ZN10Qt3DRender11QFrameGraphD1Ev@Qt_5 5.6.0
 _ZN10Qt3DRender11QFrameGraphD2Ev@Qt_5 5.6.0
 _ZN10Qt3DRender11QPointLight11qt_metacallEN11QMetaObject4CallEiPPv@Qt_5 5.6.0
 _ZN10Qt3DRender11QPointLight11qt_metacastEPKc@Qt_5 5.6.0
 _ZN10Qt3DRender11QPointLight14setAttenuationERK9QVector3D@Qt_5 5.6.0
 _ZN10Qt3DRender11QPointLight16staticMetaObjectE@Qt_5 5.6.0
 _ZN10Qt3DRender11QPointLight18attenuationChangedERK9QVector3D@Qt_5 5.6.0
 _ZN10Qt3DRender11QPointLight20setLinearAttenuationEf@Qt_5 5.6.0
 _ZN10Qt3DRender11QPointLight22setConstantAttenuationEf@Qt_5 5.6.0
 _ZN10Qt3DRender11QPointLight23setQuadraticAttenuationEf@Qt_5 5.6.0
 _ZN10Qt3DRender11QPointLightC1EPN8Qt3DCore5QNodeE@Qt_5 5.6.0
 _ZN10Qt3DRender11QPointLightC1ERNS_18QPointLightPrivateEPN8Qt3DCore5QNodeE@Qt_5 5.6.0
 _ZN10Qt3DRender11QPointLightC2EPN8Qt3DCore5QNodeE@Qt_5 5.6.0
 _ZN10Qt3DRender11QPointLightC2ERNS_18QPointLightPrivateEPN8Qt3DCore5QNodeE@Qt_5 5.6.0
 _ZN10Qt3DRender11QRenderPass10addBindingEPNS_17QParameterMappingE@Qt_5 5.6.0
 _ZN10Qt3DRender11QRenderPass11qt_metacallEN11QMetaObject4CallEiPPv@Qt_5 5.6.0
 _ZN10Qt3DRender11QRenderPass11qt_metacastEPKc@Qt_5 5.6.0
 _ZN10Qt3DRender11QRenderPass12addParameterEPNS_10QParameterE@Qt_5 5.6.0
 _ZN10Qt3DRender11QRenderPass13addAnnotationEPNS_11QAnnotationE@Qt_5 5.6.0
 _ZN10Qt3DRender11QRenderPass13removeBindingEPNS_17QParameterMappingE@Qt_5 5.6.0
 _ZN10Qt3DRender11QRenderPass14addRenderStateEPNS_12QRenderStateE@Qt_5 5.6.0
 _ZN10Qt3DRender11QRenderPass15removeParameterEPNS_10QParameterE@Qt_5 5.6.0
 _ZN10Qt3DRender11QRenderPass16removeAnnotationEPNS_11QAnnotationE@Qt_5 5.6.0
 _ZN10Qt3DRender11QRenderPass16setShaderProgramEPNS_14QShaderProgramE@Qt_5 5.6.0
 _ZN10Qt3DRender11QRenderPass16staticMetaObjectE@Qt_5 5.6.0
 _ZN10Qt3DRender11QRenderPass17removeRenderStateEPNS_12QRenderStateE@Qt_5 5.6.0
 _ZN10Qt3DRender11QRenderPass20shaderProgramChangedEPNS_14QShaderProgramE@Qt_5 5.6.0
 _ZN10Qt3DRender11QRenderPass4copyEPKN8Qt3DCore5QNodeE@Qt_5 5.6.0
 _ZN10Qt3DRender11QRenderPassC1EPN8Qt3DCore5QNodeE@Qt_5 5.6.0
 _ZN10Qt3DRender11QRenderPassC1ERNS_18QRenderPassPrivateEPN8Qt3DCore5QNodeE@Qt_5 5.6.0
 _ZN10Qt3DRender11QRenderPassC2EPN8Qt3DCore5QNodeE@Qt_5 5.6.0
 _ZN10Qt3DRender11QRenderPassC2ERNS_18QRenderPassPrivateEPN8Qt3DCore5QNodeE@Qt_5 5.6.0
 _ZN10Qt3DRender11QRenderPassD0Ev@Qt_5 5.6.0
 _ZN10Qt3DRender11QRenderPassD1Ev@Qt_5 5.6.0
 _ZN10Qt3DRender11QRenderPassD2Ev@Qt_5 5.6.0
 _ZN10Qt3DRender11QShaderData11qt_metacallEN11QMetaObject4CallEiPPv@Qt_5 5.6.0
 _ZN10Qt3DRender11QShaderData11qt_metacastEPKc@Qt_5 5.6.0
 _ZN10Qt3DRender11QShaderData16staticMetaObjectE@Qt_5 5.6.0
 _ZN10Qt3DRender11QShaderData4copyEPKN8Qt3DCore5QNodeE@Qt_5 5.6.0
 _ZN10Qt3DRender11QShaderDataC1EPN8Qt3DCore5QNodeE@Qt_5 5.6.0
 _ZN10Qt3DRender11QShaderDataC1ERNS_18QShaderDataPrivateEPN8Qt3DCore5QNodeE@Qt_5 5.6.0
 _ZN10Qt3DRender11QShaderDataC2EPN8Qt3DCore5QNodeE@Qt_5 5.6.0
 _ZN10Qt3DRender11QShaderDataC2ERNS_18QShaderDataPrivateEPN8Qt3DCore5QNodeE@Qt_5 5.6.0
 _ZN10Qt3DRender11QShaderDataD0Ev@Qt_5 5.6.0
 _ZN10Qt3DRender11QShaderDataD1Ev@Qt_5 5.6.0
 _ZN10Qt3DRender11QShaderDataD2Ev@Qt_5 5.6.0
 _ZN10Qt3DRender11QSortMethod11qt_metacallEN11QMetaObject4CallEiPPv@Qt_5 5.6.0
 _ZN10Qt3DRender11QSortMethod11qt_metacastEPKc@Qt_5 5.6.0
 _ZN10Qt3DRender11QSortMethod12addCriterionEPNS_14QSortCriterionE@Qt_5 5.6.0
 _ZN10Qt3DRender11QSortMethod15removeCriterionEPNS_14QSortCriterionE@Qt_5 5.6.0
 _ZN10Qt3DRender11QSortMethod16staticMetaObjectE@Qt_5 5.6.0
 _ZN10Qt3DRender11QSortMethod4copyEPKN8Qt3DCore5QNodeE@Qt_5 5.6.0
 _ZN10Qt3DRender11QSortMethodC1EPN8Qt3DCore5QNodeE@Qt_5 5.6.0
 _ZN10Qt3DRender11QSortMethodC1ERNS_18QSortMethodPrivateEPN8Qt3DCore5QNodeE@Qt_5 5.6.0
 _ZN10Qt3DRender11QSortMethodC2EPN8Qt3DCore5QNodeE@Qt_5 5.6.0
 _ZN10Qt3DRender11QSortMethodC2ERNS_18QSortMethodPrivateEPN8Qt3DCore5QNodeE@Qt_5 5.6.0
 _ZN10Qt3DRender11QSortMethodD0Ev@Qt_5 5.6.0
 _ZN10Qt3DRender11QSortMethodD1Ev@Qt_5 5.6.0
 _ZN10Qt3DRender11QSortMethodD2Ev@Qt_5 5.6.0
 _ZN10Qt3DRender11QSphereMesh11qt_metacallEN11QMetaObject4CallEiPPv@Qt_5 5.6.0
 _ZN10Qt3DRender11QSphereMesh11qt_metacastEPKc@Qt_5 5.6.0
 _ZN10Qt3DRender11QSphereMesh12ringsChangedEi@Qt_5 5.6.0
 _ZN10Qt3DRender11QSphereMesh13radiusChangedEf@Qt_5 5.6.0
 _ZN10Qt3DRender11QSphereMesh13slicesChangedEi@Qt_5 5.6.0
 _ZN10Qt3DRender11QSphereMesh16staticMetaObjectE@Qt_5 5.6.0
 _ZN10Qt3DRender11QSphereMesh19setGenerateTangentsEb@Qt_5 5.6.0
 _ZN10Qt3DRender11QSphereMesh23generateTangentsChangedEb@Qt_5 5.6.0
 _ZN10Qt3DRender11QSphereMesh8setRingsEi@Qt_5 5.6.0
 _ZN10Qt3DRender11QSphereMesh9setRadiusEf@Qt_5 5.6.0
 _ZN10Qt3DRender11QSphereMesh9setSlicesEi@Qt_5 5.6.0
 _ZN10Qt3DRender11QSphereMeshC1EPN8Qt3DCore5QNodeE@Qt_5 5.6.0
 _ZN10Qt3DRender11QSphereMeshC2EPN8Qt3DCore5QNodeE@Qt_5 5.6.0
 _ZN10Qt3DRender11QSphereMeshD0Ev@Qt_5 5.6.0
 _ZN10Qt3DRender11QSphereMeshD1Ev@Qt_5 5.6.0
 _ZN10Qt3DRender11QSphereMeshD2Ev@Qt_5 5.6.0
 _ZN10Qt3DRender12QClearBuffer10setBuffersENS0_10BufferTypeE@Qt_5 5.6.0
 _ZN10Qt3DRender12QClearBuffer11qt_metacallEN11QMetaObject4CallEiPPv@Qt_5 5.6.0
 _ZN10Qt3DRender12QClearBuffer11qt_metacastEPKc@Qt_5 5.6.0
 _ZN10Qt3DRender12QClearBuffer14buffersChangedENS0_10BufferTypeE@Qt_5 5.6.0
 _ZN10Qt3DRender12QClearBuffer16staticMetaObjectE@Qt_5 5.6.0
 _ZN10Qt3DRender12QClearBuffer4copyEPKN8Qt3DCore5QNodeE@Qt_5 5.6.0
 _ZN10Qt3DRender12QClearBufferC1EPN8Qt3DCore5QNodeE@Qt_5 5.6.0
 _ZN10Qt3DRender12QClearBufferC1ERNS_19QClearBufferPrivateEPN8Qt3DCore5QNodeE@Qt_5 5.6.0
 _ZN10Qt3DRender12QClearBufferC2EPN8Qt3DCore5QNodeE@Qt_5 5.6.0
 _ZN10Qt3DRender12QClearBufferC2ERNS_19QClearBufferPrivateEPN8Qt3DCore5QNodeE@Qt_5 5.6.0
 _ZN10Qt3DRender12QClearBufferD0Ev@Qt_5 5.6.0
 _ZN10Qt3DRender12QClearBufferD1Ev@Qt_5 5.6.0
 _ZN10Qt3DRender12QClearBufferD2Ev@Qt_5 5.6.0
 _ZN10Qt3DRender12QLayerFilter11qt_metacallEN11QMetaObject4CallEiPPv@Qt_5 5.6.0
 _ZN10Qt3DRender12QLayerFilter11qt_metacastEPKc@Qt_5 5.6.0
 _ZN10Qt3DRender12QLayerFilter13layersChangedERK11QStringList@Qt_5 5.6.0
 _ZN10Qt3DRender12QLayerFilter16staticMetaObjectE@Qt_5 5.6.0
 _ZN10Qt3DRender12QLayerFilter4copyEPKN8Qt3DCore5QNodeE@Qt_5 5.6.0
 _ZN10Qt3DRender12QLayerFilter9setLayersERK11QStringList@Qt_5 5.6.0
 _ZN10Qt3DRender12QLayerFilterC1EPN8Qt3DCore5QNodeE@Qt_5 5.6.0
 _ZN10Qt3DRender12QLayerFilterC1ERNS_19QLayerFilterPrivateEPN8Qt3DCore5QNodeE@Qt_5 5.6.0
 _ZN10Qt3DRender12QLayerFilterC2EPN8Qt3DCore5QNodeE@Qt_5 5.6.0
 _ZN10Qt3DRender12QLayerFilterC2ERNS_19QLayerFilterPrivateEPN8Qt3DCore5QNodeE@Qt_5 5.6.0
 _ZN10Qt3DRender12QLayerFilterD0Ev@Qt_5 5.6.0
 _ZN10Qt3DRender12QLayerFilterD1Ev@Qt_5 5.6.0
 _ZN10Qt3DRender12QLayerFilterD2Ev@Qt_5 5.6.0
 _ZN10Qt3DRender12QRenderState11qt_metacallEN11QMetaObject4CallEiPPv@Qt_5 5.6.0
 _ZN10Qt3DRender12QRenderState11qt_metacastEPKc@Qt_5 5.6.0
 _ZN10Qt3DRender12QRenderState16staticMetaObjectE@Qt_5 5.6.0
 _ZN10Qt3DRender12QRenderStateC1ERNS_19QRenderStatePrivateEPN8Qt3DCore5QNodeE@Qt_5 5.6.0
 _ZN10Qt3DRender12QRenderStateC2ERNS_19QRenderStatePrivateEPN8Qt3DCore5QNodeE@Qt_5 5.6.0
 _ZN10Qt3DRender12QRenderStateD0Ev@Qt_5 5.6.0
 _ZN10Qt3DRender12QRenderStateD1Ev@Qt_5 5.6.0
 _ZN10Qt3DRender12QRenderStateD2Ev@Qt_5 5.6.0
 _ZN10Qt3DRender12QSceneLoader11qt_metacallEN11QMetaObject4CallEiPPv@Qt_5 5.6.0
 _ZN10Qt3DRender12QSceneLoader11qt_metacastEPKc@Qt_5 5.6.0
 _ZN10Qt3DRender12QSceneLoader16sceneChangeEventERK14QSharedPointerIN8Qt3DCore12QSceneChangeEE@Qt_5 5.6.0
 _ZN10Qt3DRender12QSceneLoader16staticMetaObjectE@Qt_5 5.6.0
 _ZN10Qt3DRender12QSceneLoaderC1EPN8Qt3DCore5QNodeE@Qt_5 5.6.0
 _ZN10Qt3DRender12QSceneLoaderC2EPN8Qt3DCore5QNodeE@Qt_5 5.6.0
 _ZN10Qt3DRender12QSceneLoaderD0Ev@Qt_5 5.6.0
 _ZN10Qt3DRender12QSceneLoaderD1Ev@Qt_5 5.6.0
 _ZN10Qt3DRender12QSceneLoaderD2Ev@Qt_5 5.6.0
 _ZN10Qt3DRender12QScissorTest11leftChangedEi@Qt_5 5.6.0
 _ZN10Qt3DRender12QScissorTest11qt_metacallEN11QMetaObject4CallEiPPv@Qt_5 5.6.0
 _ZN10Qt3DRender12QScissorTest11qt_metacastEPKc@Qt_5 5.6.0
 _ZN10Qt3DRender12QScissorTest12widthChangedEi@Qt_5 5.6.0
 _ZN10Qt3DRender12QScissorTest13bottomChangedEi@Qt_5 5.6.0
 _ZN10Qt3DRender12QScissorTest13heightChangedEi@Qt_5 5.6.0
 _ZN10Qt3DRender12QScissorTest16staticMetaObjectE@Qt_5 5.6.0
 _ZN10Qt3DRender12QScissorTest4copyEPKN8Qt3DCore5QNodeE@Qt_5 5.6.0
 _ZN10Qt3DRender12QScissorTest7setLeftEi@Qt_5 5.6.0
 _ZN10Qt3DRender12QScissorTest8setWidthEi@Qt_5 5.6.0
 _ZN10Qt3DRender12QScissorTest9setBottomEi@Qt_5 5.6.0
 _ZN10Qt3DRender12QScissorTest9setHeightEi@Qt_5 5.6.0
 _ZN10Qt3DRender12QScissorTestC1EPN8Qt3DCore5QNodeE@Qt_5 5.6.0
 _ZN10Qt3DRender12QScissorTestC2EPN8Qt3DCore5QNodeE@Qt_5 5.6.0
 _ZN10Qt3DRender12QScissorTestD0Ev@Qt_5 5.6.0
 _ZN10Qt3DRender12QScissorTestD1Ev@Qt_5 5.6.0
 _ZN10Qt3DRender12QScissorTestD2Ev@Qt_5 5.6.0
 _ZN10Qt3DRender12QStencilMask11qt_metacallEN11QMetaObject4CallEiPPv@Qt_5 5.6.0
 _ZN10Qt3DRender12QStencilMask11qt_metacastEPKc@Qt_5 5.6.0
 _ZN10Qt3DRender12QStencilMask11setBackMaskEj@Qt_5 5.6.0
 _ZN10Qt3DRender12QStencilMask12setFrontMaskEj@Qt_5 5.6.0
 _ZN10Qt3DRender12QStencilMask15backMaskChangedEj@Qt_5 5.6.0
 _ZN10Qt3DRender12QStencilMask16frontMaskChangedEj@Qt_5 5.6.0
 _ZN10Qt3DRender12QStencilMask16staticMetaObjectE@Qt_5 5.6.0
 _ZN10Qt3DRender12QStencilMask4copyEPKN8Qt3DCore5QNodeE@Qt_5 5.6.0
 _ZN10Qt3DRender12QStencilMaskC1EPN8Qt3DCore5QNodeE@Qt_5 5.6.0
 _ZN10Qt3DRender12QStencilMaskC2EPN8Qt3DCore5QNodeE@Qt_5 5.6.0
 _ZN10Qt3DRender12QStencilMaskD0Ev@Qt_5 5.6.0
 _ZN10Qt3DRender12QStencilMaskD1Ev@Qt_5 5.6.0
 _ZN10Qt3DRender12QStencilMaskD2Ev@Qt_5 5.6.0
 _ZN10Qt3DRender12QStencilTest11qt_metacallEN11QMetaObject4CallEiPPv@Qt_5 5.6.0
 _ZN10Qt3DRender12QStencilTest11qt_metacastEPKc@Qt_5 5.6.0
 _ZN10Qt3DRender12QStencilTest16staticMetaObjectE@Qt_5 5.6.0
 _ZN10Qt3DRender12QStencilTest4copyEPKN8Qt3DCore5QNodeE@Qt_5 5.6.0
 _ZN10Qt3DRender12QStencilTestC1EPN8Qt3DCore5QNodeE@Qt_5 5.6.0
 _ZN10Qt3DRender12QStencilTestC2EPN8Qt3DCore5QNodeE@Qt_5 5.6.0
 _ZN10Qt3DRender12QStencilTestD0Ev@Qt_5 5.6.0
 _ZN10Qt3DRender12QStencilTestD1Ev@Qt_5 5.6.0
 _ZN10Qt3DRender12QStencilTestD2Ev@Qt_5 5.6.0
 _ZN10Qt3DRender13QCylinderMesh11qt_metacallEN11QMetaObject4CallEiPPv@Qt_5 5.6.0
 _ZN10Qt3DRender13QCylinderMesh11qt_metacastEPKc@Qt_5 5.6.0
 _ZN10Qt3DRender13QCylinderMesh12ringsChangedEi@Qt_5 5.6.0
 _ZN10Qt3DRender13QCylinderMesh13lengthChangedEf@Qt_5 5.6.0
 _ZN10Qt3DRender13QCylinderMesh13radiusChangedEf@Qt_5 5.6.0
 _ZN10Qt3DRender13QCylinderMesh13slicesChangedEi@Qt_5 5.6.0
 _ZN10Qt3DRender13QCylinderMesh16staticMetaObjectE@Qt_5 5.6.0
 _ZN10Qt3DRender13QCylinderMesh8setRingsEi@Qt_5 5.6.0
 _ZN10Qt3DRender13QCylinderMesh9setLengthEf@Qt_5 5.6.0
 _ZN10Qt3DRender13QCylinderMesh9setRadiusEf@Qt_5 5.6.0
 _ZN10Qt3DRender13QCylinderMesh9setSlicesEi@Qt_5 5.6.0
 _ZN10Qt3DRender13QCylinderMeshC1EPN8Qt3DCore5QNodeE@Qt_5 5.6.0
 _ZN10Qt3DRender13QCylinderMeshC2EPN8Qt3DCore5QNodeE@Qt_5 5.6.0
 _ZN10Qt3DRender13QCylinderMeshD0Ev@Qt_5 5.6.0
 _ZN10Qt3DRender13QCylinderMeshD1Ev@Qt_5 5.6.0
 _ZN10Qt3DRender13QCylinderMeshD2Ev@Qt_5 5.6.0
 _ZN10Qt3DRender13QObjectPicker10setPressedEb@Qt_5 5.6.0
 _ZN10Qt3DRender13QObjectPicker11qt_metacallEN11QMetaObject4CallEiPPv@Qt_5 5.6.0
 _ZN10Qt3DRender13QObjectPicker11qt_metacastEPKc@Qt_5 5.6.0
 _ZN10Qt3DRender13QObjectPicker14pressedChangedEb@Qt_5 5.6.0
 _ZN10Qt3DRender13QObjectPicker15setHoverEnabledEb@Qt_5 5.6.0
 _ZN10Qt3DRender13QObjectPicker16sceneChangeEventERK14QSharedPointerIN8Qt3DCore12QSceneChangeEE@Qt_5 5.6.0
 _ZN10Qt3DRender13QObjectPicker16setContainsMouseEb@Qt_5 5.6.0
 _ZN10Qt3DRender13QObjectPicker16staticMetaObjectE@Qt_5 5.6.0
 _ZN10Qt3DRender13QObjectPicker19hoverEnabledChangedEb@Qt_5 5.6.0
 _ZN10Qt3DRender13QObjectPicker20containsMouseChangedEb@Qt_5 5.6.0
 _ZN10Qt3DRender13QObjectPicker4copyEPKN8Qt3DCore5QNodeE@Qt_5 5.6.0
 _ZN10Qt3DRender13QObjectPicker6exitedEv@Qt_5 5.6.0
 _ZN10Qt3DRender13QObjectPicker7clickedEPNS_10QPickEventE@Qt_5 5.6.0
 _ZN10Qt3DRender13QObjectPicker7enteredEv@Qt_5 5.6.0
 _ZN10Qt3DRender13QObjectPicker7pressedEPNS_10QPickEventE@Qt_5 5.6.0
 _ZN10Qt3DRender13QObjectPicker8releasedEPNS_10QPickEventE@Qt_5 5.6.0
 _ZN10Qt3DRender13QObjectPickerC1EPN8Qt3DCore5QNodeE@Qt_5 5.6.0
 _ZN10Qt3DRender13QObjectPickerC2EPN8Qt3DCore5QNodeE@Qt_5 5.6.0
 _ZN10Qt3DRender13QObjectPickerD0Ev@Qt_5 5.6.0
 _ZN10Qt3DRender13QObjectPickerD1Ev@Qt_5 5.6.0
 _ZN10Qt3DRender13QObjectPickerD2Ev@Qt_5 5.6.0
 _ZN10Qt3DRender13QRenderAspect11qt_metacallEN11QMetaObject4CallEiPPv@Qt_5 5.6.0
 _ZN10Qt3DRender13QRenderAspect11qt_metacastEPKc@Qt_5 5.6.0
 _ZN10Qt3DRender13QRenderAspect12onInitializeERK4QMapI7QString8QVariantE@Qt_5 5.6.0
 _ZN10Qt3DRender13QRenderAspect13jobsToExecuteEx@Qt_5 5.6.0
 _ZN10Qt3DRender13QRenderAspect14renderShutdownEv@Qt_5 5.6.0
 _ZN10Qt3DRender13QRenderAspect16renderInitializeEP14QOpenGLContext@Qt_5 5.6.0
 _ZN10Qt3DRender13QRenderAspect16staticMetaObjectE@Qt_5 5.6.0
 _ZN10Qt3DRender13QRenderAspect17renderSynchronousEv@Qt_5 5.6.0
 _ZN10Qt3DRender13QRenderAspect19onRootEntityChangedEPN8Qt3DCore7QEntityE@Qt_5 5.6.0
 _ZN10Qt3DRender13QRenderAspect20registerBackendTypesEv@Qt_5 5.6.0
 _ZN10Qt3DRender13QRenderAspect22createRenderBufferJobsEv@Qt_5 5.6.0
 _ZN10Qt3DRender13QRenderAspect26createGeometryRendererJobsEv@Qt_5 5.6.0
 _ZN10Qt3DRender13QRenderAspect9onCleanupEv@Qt_5 5.6.0
 _ZN10Qt3DRender13QRenderAspectC1ENS0_10RenderTypeEP7QObject@Qt_5 5.6.0
 _ZN10Qt3DRender13QRenderAspectC1EP7QObject@Qt_5 5.6.0
 _ZN10Qt3DRender13QRenderAspectC1ERNS_20QRenderAspectPrivateEP7QObject@Qt_5 5.6.0
 _ZN10Qt3DRender13QRenderAspectC2ENS0_10RenderTypeEP7QObject@Qt_5 5.6.0
 _ZN10Qt3DRender13QRenderAspectC2EP7QObject@Qt_5 5.6.0
 _ZN10Qt3DRender13QRenderAspectC2ERNS_20QRenderAspectPrivateEP7QObject@Qt_5 5.6.0
 _ZN10Qt3DRender13QRenderTarget11qt_metacallEN11QMetaObject4CallEiPPv@Qt_5 5.6.0
 _ZN10Qt3DRender13QRenderTarget11qt_metacastEPKc@Qt_5 5.6.0
 _ZN10Qt3DRender13QRenderTarget13addAttachmentEPNS_17QRenderAttachmentE@Qt_5 5.6.0
 _ZN10Qt3DRender13QRenderTarget16removeAttachmentEPNS_17QRenderAttachmentE@Qt_5 5.6.0
 _ZN10Qt3DRender13QRenderTarget16staticMetaObjectE@Qt_5 5.6.0
 _ZN10Qt3DRender13QRenderTarget4copyEPKN8Qt3DCore5QNodeE@Qt_5 5.6.0
 _ZN10Qt3DRender13QRenderTargetC1EPN8Qt3DCore5QNodeE@Qt_5 5.6.0
 _ZN10Qt3DRender13QRenderTargetC1ERNS_20QRenderTargetPrivateEPN8Qt3DCore5QNodeE@Qt_5 5.6.0
 _ZN10Qt3DRender13QRenderTargetC2EPN8Qt3DCore5QNodeE@Qt_5 5.6.0
 _ZN10Qt3DRender13QRenderTargetC2ERNS_20QRenderTargetPrivateEPN8Qt3DCore5QNodeE@Qt_5 5.6.0
 _ZN10Qt3DRender13QRenderTargetD0Ev@Qt_5 5.6.0
 _ZN10Qt3DRender13QRenderTargetD1Ev@Qt_5 5.6.0
 _ZN10Qt3DRender13QRenderTargetD2Ev@Qt_5 5.6.0
 _ZN10Qt3DRender13QSkyboxEntity11qt_metacallEN11QMetaObject4CallEiPPv@Qt_5 5.6.0
 _ZN10Qt3DRender13QSkyboxEntity11qt_metacastEPKc@Qt_5 5.6.0
 _ZN10Qt3DRender13QSkyboxEntity11setBaseNameERK7QString@Qt_5 5.6.0
 _ZN10Qt3DRender13QSkyboxEntity12setExtensionERK7QString@Qt_5 5.6.0
 _ZN10Qt3DRender13QSkyboxEntity16extensionChangedERK7QString@Qt_5 5.6.0
 _ZN10Qt3DRender13QSkyboxEntity16staticMetaObjectE@Qt_5 5.6.0
 _ZN10Qt3DRender13QSkyboxEntity17setCameraPositionERK9QVector3D@Qt_5 5.6.0
 _ZN10Qt3DRender13QSkyboxEntity21cameraPositionChangedERK9QVector3D@Qt_5 5.6.0
 _ZN10Qt3DRender13QSkyboxEntity22sourceDirectoryChangedERK7QString@Qt_5 5.6.0
 _ZN10Qt3DRender13QSkyboxEntityC1EPN8Qt3DCore5QNodeE@Qt_5 5.6.0
 _ZN10Qt3DRender13QSkyboxEntityC2EPN8Qt3DCore5QNodeE@Qt_5 5.6.0
 _ZN10Qt3DRender13QSkyboxEntityD0Ev@Qt_5 5.6.0
 _ZN10Qt3DRender13QSkyboxEntityD1Ev@Qt_5 5.6.0
 _ZN10Qt3DRender13QSkyboxEntityD2Ev@Qt_5 5.6.0
 _ZN10Qt3DRender13QTexImageData17setCompressedFileERK7QString@Qt_5 5.6.0
 _ZN10Qt3DRender13QTexImageData7cleanupEv@Qt_5 5.6.0
 _ZN10Qt3DRender13QTexImageData7setDataERK10QByteArrayN14QOpenGLTexture11PixelFormatENS4_9PixelTypeE@Qt_5 5.6.0
 _ZN10Qt3DRender13QTexImageData8setImageERK6QImage@Qt_5 5.6.0
 _ZN10Qt3DRender13QTexImageDataC1ERNS_20QTexImageDataPrivateE@Qt_5 5.6.0
 _ZN10Qt3DRender13QTexImageDataC1Ev@Qt_5 5.6.0
 _ZN10Qt3DRender13QTexImageDataC2ERNS_20QTexImageDataPrivateE@Qt_5 5.6.0
 _ZN10Qt3DRender13QTexImageDataC2Ev@Qt_5 5.6.0
 _ZN10Qt3DRender13QTexImageDataD0Ev@Qt_5 5.6.0
 _ZN10Qt3DRender13QTexImageDataD1Ev@Qt_5 5.6.0
 _ZN10Qt3DRender13QTexImageDataD2Ev@Qt_5 5.6.0
 _ZN10Qt3DRender13QTexImageDataaSERKS0_@Qt_5 5.6.0
 _ZN10Qt3DRender13QTextureImage11qt_metacallEN11QMetaObject4CallEiPPv@Qt_5 5.6.0
 _ZN10Qt3DRender13QTextureImage11qt_metacastEPKc@Qt_5 5.6.0
 _ZN10Qt3DRender13QTextureImage13sourceChangedERK4QUrl@Qt_5 5.6.0
 _ZN10Qt3DRender13QTextureImage16staticMetaObjectE@Qt_5 5.6.0
 _ZN10Qt3DRender13QTextureImage4copyEPKN8Qt3DCore5QNodeE@Qt_5 5.6.0
 _ZN10Qt3DRender13QTextureImage9setSourceERK4QUrl@Qt_5 5.6.0
 _ZN10Qt3DRender13QTextureImageC1EPN8Qt3DCore5QNodeE@Qt_5 5.6.0
 _ZN10Qt3DRender13QTextureImageC2EPN8Qt3DCore5QNodeE@Qt_5 5.6.0
 _ZN10Qt3DRender13QTextureImageD0Ev@Qt_5 5.6.0
 _ZN10Qt3DRender13QTextureImageD1Ev@Qt_5 5.6.0
 _ZN10Qt3DRender13QTextureImageD2Ev@Qt_5 5.6.0
 _ZN10Qt3DRender14QAlphaCoverage11qt_metacallEN11QMetaObject4CallEiPPv@Qt_5 5.6.0
 _ZN10Qt3DRender14QAlphaCoverage11qt_metacastEPKc@Qt_5 5.6.0
 _ZN10Qt3DRender14QAlphaCoverage16staticMetaObjectE@Qt_5 5.6.0
 _ZN10Qt3DRender14QAlphaCoverageC1EPN8Qt3DCore5QNodeE@Qt_5 5.6.0
 _ZN10Qt3DRender14QAlphaCoverageC2EPN8Qt3DCore5QNodeE@Qt_5 5.6.0
 _ZN10Qt3DRender14QAlphaCoverageD0Ev@Qt_5 5.6.0
 _ZN10Qt3DRender14QAlphaCoverageD1Ev@Qt_5 5.6.0
 _ZN10Qt3DRender14QAlphaCoverageD2Ev@Qt_5 5.6.0
 _ZN10Qt3DRender14QBlendEquation11modeChangedENS0_9BlendModeE@Qt_5 5.6.0
 _ZN10Qt3DRender14QBlendEquation11qt_metacallEN11QMetaObject4CallEiPPv@Qt_5 5.6.0
 _ZN10Qt3DRender14QBlendEquation11qt_metacastEPKc@Qt_5 5.6.0
 _ZN10Qt3DRender14QBlendEquation16staticMetaObjectE@Qt_5 5.6.0
 _ZN10Qt3DRender14QBlendEquation4copyEPKN8Qt3DCore5QNodeE@Qt_5 5.6.0
 _ZN10Qt3DRender14QBlendEquation7setModeENS0_9BlendModeE@Qt_5 5.6.0
 _ZN10Qt3DRender14QBlendEquationC1EPN8Qt3DCore5QNodeE@Qt_5 5.6.0
 _ZN10Qt3DRender14QBlendEquationC2EPN8Qt3DCore5QNodeE@Qt_5 5.6.0
 _ZN10Qt3DRender14QBlendEquationD0Ev@Qt_5 5.6.0
 _ZN10Qt3DRender14QBlendEquationD1Ev@Qt_5 5.6.0
 _ZN10Qt3DRender14QBlendEquationD2Ev@Qt_5 5.6.0
 _ZN10Qt3DRender14QBufferPrivateC1Ev@Qt_5 5.6.0
 _ZN10Qt3DRender14QBufferPrivateC2Ev@Qt_5 5.6.0
 _ZN10Qt3DRender14QGoochMaterial10setDiffuseERK6QColor@Qt_5 5.6.0
 _ZN10Qt3DRender14QGoochMaterial11betaChangedEf@Qt_5 5.6.0
 _ZN10Qt3DRender14QGoochMaterial11coolChangedERK6QColor@Qt_5 5.6.0
 _ZN10Qt3DRender14QGoochMaterial11qt_metacallEN11QMetaObject4CallEiPPv@Qt_5 5.6.0
 _ZN10Qt3DRender14QGoochMaterial11qt_metacastEPKc@Qt_5 5.6.0
 _ZN10Qt3DRender14QGoochMaterial11setSpecularERK6QColor@Qt_5 5.6.0
 _ZN10Qt3DRender14QGoochMaterial11warmChangedERK6QColor@Qt_5 5.6.0
 _ZN10Qt3DRender14QGoochMaterial12alphaChangedEf@Qt_5 5.6.0
 _ZN10Qt3DRender14QGoochMaterial12setShininessEf@Qt_5 5.6.0
 _ZN10Qt3DRender14QGoochMaterial14diffuseChangedERK6QColor@Qt_5 5.6.0
 _ZN10Qt3DRender14QGoochMaterial15specularChangedERK6QColor@Qt_5 5.6.0
 _ZN10Qt3DRender14QGoochMaterial16shininessChangedEf@Qt_5 5.6.0
 _ZN10Qt3DRender14QGoochMaterial16staticMetaObjectE@Qt_5 5.6.0
 _ZN10Qt3DRender14QGoochMaterial7setBetaEf@Qt_5 5.6.0
 _ZN10Qt3DRender14QGoochMaterial7setCoolERK6QColor@Qt_5 5.6.0
 _ZN10Qt3DRender14QGoochMaterial7setWarmERK6QColor@Qt_5 5.6.0
 _ZN10Qt3DRender14QGoochMaterial8setAlphaEf@Qt_5 5.6.0
 _ZN10Qt3DRender14QGoochMaterialC1EPN8Qt3DCore5QNodeE@Qt_5 5.6.0
 _ZN10Qt3DRender14QGoochMaterialC1ERNS_21QGoochMaterialPrivateEPN8Qt3DCore5QNodeE@Qt_5 5.6.0
 _ZN10Qt3DRender14QGoochMaterialC2EPN8Qt3DCore5QNodeE@Qt_5 5.6.0
 _ZN10Qt3DRender14QGoochMaterialC2ERNS_21QGoochMaterialPrivateEPN8Qt3DCore5QNodeE@Qt_5 5.6.0
 _ZN10Qt3DRender14QPhongMaterial10setAmbientERK6QColor@Qt_5 5.6.0
 _ZN10Qt3DRender14QPhongMaterial10setDiffuseERK6QColor@Qt_5 5.6.0
 _ZN10Qt3DRender14QPhongMaterial11qt_metacallEN11QMetaObject4CallEiPPv@Qt_5 5.6.0
 _ZN10Qt3DRender14QPhongMaterial11qt_metacastEPKc@Qt_5 5.6.0
 _ZN10Qt3DRender14QPhongMaterial11setSpecularERK6QColor@Qt_5 5.6.0
 _ZN10Qt3DRender14QPhongMaterial12setShininessEf@Qt_5 5.6.0
 _ZN10Qt3DRender14QPhongMaterial14ambientChangedERK6QColor@Qt_5 5.6.0
 _ZN10Qt3DRender14QPhongMaterial14diffuseChangedERK6QColor@Qt_5 5.6.0
 _ZN10Qt3DRender14QPhongMaterial15specularChangedERK6QColor@Qt_5 5.6.0
 _ZN10Qt3DRender14QPhongMaterial16shininessChangedEf@Qt_5 5.6.0
 _ZN10Qt3DRender14QPhongMaterial16staticMetaObjectE@Qt_5 5.6.0
 _ZN10Qt3DRender14QPhongMaterialC1EPN8Qt3DCore5QNodeE@Qt_5 5.6.0
 _ZN10Qt3DRender14QPhongMaterialC2EPN8Qt3DCore5QNodeE@Qt_5 5.6.0
 _ZN10Qt3DRender14QPhongMaterialD0Ev@Qt_5 5.6.0
 _ZN10Qt3DRender14QPhongMaterialD1Ev@Qt_5 5.6.0
 _ZN10Qt3DRender14QPhongMaterialD2Ev@Qt_5 5.6.0
 _ZN10Qt3DRender14QPlaneGeometry11qt_metacallEN11QMetaObject4CallEiPPv@Qt_5 5.6.0
 _ZN10Qt3DRender14QPlaneGeometry11qt_metacastEPKc@Qt_5 5.6.0
 _ZN10Qt3DRender14QPlaneGeometry12widthChangedEf@Qt_5 5.6.0
 _ZN10Qt3DRender14QPlaneGeometry13heightChangedEf@Qt_5 5.6.0
 _ZN10Qt3DRender14QPlaneGeometry13setResolutionERK5QSize@Qt_5 5.6.0
 _ZN10Qt3DRender14QPlaneGeometry13updateIndicesEv@Qt_5 5.6.0
 _ZN10Qt3DRender14QPlaneGeometry14updateVerticesEv@Qt_5 5.6.0
 _ZN10Qt3DRender14QPlaneGeometry16staticMetaObjectE@Qt_5 5.6.0
 _ZN10Qt3DRender14QPlaneGeometry17resolutionChangedERK5QSize@Qt_5 5.6.0
 _ZN10Qt3DRender14QPlaneGeometry8setWidthEf@Qt_5 5.6.0
 _ZN10Qt3DRender14QPlaneGeometry9setHeightEf@Qt_5 5.6.0
 _ZN10Qt3DRender14QPlaneGeometryC1EPN8Qt3DCore5QNodeE@Qt_5 5.6.0
 _ZN10Qt3DRender14QPlaneGeometryC1ERNS_21QPlaneGeometryPrivateEPN8Qt3DCore5QNodeE@Qt_5 5.6.0
 _ZN10Qt3DRender14QPlaneGeometryC2EPN8Qt3DCore5QNodeE@Qt_5 5.6.0
 _ZN10Qt3DRender14QPlaneGeometryC2ERNS_21QPlaneGeometryPrivateEPN8Qt3DCore5QNodeE@Qt_5 5.6.0
 _ZN10Qt3DRender14QPlaneGeometryD0Ev@Qt_5 5.6.0
 _ZN10Qt3DRender14QPlaneGeometryD1Ev@Qt_5 5.6.0
 _ZN10Qt3DRender14QPlaneGeometryD2Ev@Qt_5 5.6.0
 _ZN10Qt3DRender14QPolygonOffset11qt_metacallEN11QMetaObject4CallEiPPv@Qt_5 5.6.0
 _ZN10Qt3DRender14QPolygonOffset11qt_metacastEPKc@Qt_5 5.6.0
 _ZN10Qt3DRender14QPolygonOffset12unitsChangedEf@Qt_5 5.6.0
 _ZN10Qt3DRender14QPolygonOffset13factorChangedEf@Qt_5 5.6.0
 _ZN10Qt3DRender14QPolygonOffset16staticMetaObjectE@Qt_5 5.6.0
 _ZN10Qt3DRender14QPolygonOffset4copyEPKN8Qt3DCore5QNodeE@Qt_5 5.6.0
 _ZN10Qt3DRender14QPolygonOffset8setUnitsEf@Qt_5 5.6.0
 _ZN10Qt3DRender14QPolygonOffset9setFactorEf@Qt_5 5.6.0
 _ZN10Qt3DRender14QPolygonOffsetC1EPN8Qt3DCore5QNodeE@Qt_5 5.6.0
 _ZN10Qt3DRender14QPolygonOffsetC2EPN8Qt3DCore5QNodeE@Qt_5 5.6.0
 _ZN10Qt3DRender14QPolygonOffsetD0Ev@Qt_5 5.6.0
 _ZN10Qt3DRender14QPolygonOffsetD1Ev@Qt_5 5.6.0
 _ZN10Qt3DRender14QPolygonOffsetD2Ev@Qt_5 5.6.0
 _ZN10Qt3DRender14QShaderProgram10loadSourceERK4QUrl@Qt_5 5.6.0
 _ZN10Qt3DRender14QShaderProgram11qt_metacallEN11QMetaObject4CallEiPPv@Qt_5 5.6.0
 _ZN10Qt3DRender14QShaderProgram11qt_metacastEPKc@Qt_5 5.6.0
 _ZN10Qt3DRender14QShaderProgram13setShaderCodeENS0_10ShaderTypeERK10QByteArray@Qt_5 5.6.0
 _ZN10Qt3DRender14QShaderProgram16staticMetaObjectE@Qt_5 5.6.0
 _ZN10Qt3DRender14QShaderProgram19setVertexShaderCodeERK10QByteArray@Qt_5 5.6.0
 _ZN10Qt3DRender14QShaderProgram20setComputeShaderCodeERK10QByteArray@Qt_5 5.6.0
 _ZN10Qt3DRender14QShaderProgram21setFragmentShaderCodeERK10QByteArray@Qt_5 5.6.0
 _ZN10Qt3DRender14QShaderProgram21setGeometryShaderCodeERK10QByteArray@Qt_5 5.6.0
 _ZN10Qt3DRender14QShaderProgram23vertexShaderCodeChangedERK10QByteArray@Qt_5 5.6.0
 _ZN10Qt3DRender14QShaderProgram24computeShaderCodeChangedERK10QByteArray@Qt_5 5.6.0
 _ZN10Qt3DRender14QShaderProgram25fragmentShaderCodeChangedERK10QByteArray@Qt_5 5.6.0
 _ZN10Qt3DRender14QShaderProgram25geometryShaderCodeChangedERK10QByteArray@Qt_5 5.6.0
 _ZN10Qt3DRender14QShaderProgram32setTessellationControlShaderCodeERK10QByteArray@Qt_5 5.6.0
 _ZN10Qt3DRender14QShaderProgram35setTessellationEvaluationShaderCodeERK10QByteArray@Qt_5 5.6.0
 _ZN10Qt3DRender14QShaderProgram36tessellationControlShaderCodeChangedERK10QByteArray@Qt_5 5.6.0
 _ZN10Qt3DRender14QShaderProgram39tessellationEvaluationShaderCodeChangedERK10QByteArray@Qt_5 5.6.0
 _ZN10Qt3DRender14QShaderProgram4copyEPKN8Qt3DCore5QNodeE@Qt_5 5.6.0
 _ZN10Qt3DRender14QShaderProgramC1EPN8Qt3DCore5QNodeE@Qt_5 5.6.0
 _ZN10Qt3DRender14QShaderProgramC1ERNS_21QShaderProgramPrivateEPN8Qt3DCore5QNodeE@Qt_5 5.6.0
 _ZN10Qt3DRender14QShaderProgramC2EPN8Qt3DCore5QNodeE@Qt_5 5.6.0
 _ZN10Qt3DRender14QShaderProgramC2ERNS_21QShaderProgramPrivateEPN8Qt3DCore5QNodeE@Qt_5 5.6.0
 _ZN10Qt3DRender14QShaderProgramD0Ev@Qt_5 5.6.0
 _ZN10Qt3DRender14QShaderProgramD1Ev@Qt_5 5.6.0
 _ZN10Qt3DRender14QShaderProgramD2Ev@Qt_5 5.6.0
 _ZN10Qt3DRender14QSortCriterion11qt_metacallEN11QMetaObject4CallEiPPv@Qt_5 5.6.0
 _ZN10Qt3DRender14QSortCriterion11qt_metacastEPKc@Qt_5 5.6.0
 _ZN10Qt3DRender14QSortCriterion11sortChangedENS0_8SortTypeE@Qt_5 5.6.0
 _ZN10Qt3DRender14QSortCriterion16staticMetaObjectE@Qt_5 5.6.0
 _ZN10Qt3DRender14QSortCriterion4copyEPKN8Qt3DCore5QNodeE@Qt_5 5.6.0
 _ZN10Qt3DRender14QSortCriterion7setSortENS0_8SortTypeE@Qt_5 5.6.0
 _ZN10Qt3DRender14QSortCriterionC1EPN8Qt3DCore5QNodeE@Qt_5 5.6.0
 _ZN10Qt3DRender14QSortCriterionC1ERNS_21QSortCriterionPrivateEPN8Qt3DCore5QNodeE@Qt_5 5.6.0
 _ZN10Qt3DRender14QSortCriterionC2EPN8Qt3DCore5QNodeE@Qt_5 5.6.0
 _ZN10Qt3DRender14QSortCriterionC2ERNS_21QSortCriterionPrivateEPN8Qt3DCore5QNodeE@Qt_5 5.6.0
 _ZN10Qt3DRender14QSortCriterionD0Ev@Qt_5 5.6.0
 _ZN10Qt3DRender14QSortCriterionD1Ev@Qt_5 5.6.0
 _ZN10Qt3DRender14QSortCriterionD2Ev@Qt_5 5.6.0
 _ZN10Qt3DRender14QTextureBuffer11qt_metacallEN11QMetaObject4CallEiPPv@Qt_5 5.6.0
 _ZN10Qt3DRender14QTextureBuffer11qt_metacastEPKc@Qt_5 5.6.0
 _ZN10Qt3DRender14QTextureBuffer16staticMetaObjectE@Qt_5 5.6.0
 _ZN10Qt3DRender14QTextureBufferC1EPN8Qt3DCore5QNodeE@Qt_5 5.6.0
 _ZN10Qt3DRender14QTextureBufferC2EPN8Qt3DCore5QNodeE@Qt_5 5.6.0
 _ZN10Qt3DRender14QTextureBufferD0Ev@Qt_5 5.6.0
 _ZN10Qt3DRender14QTextureBufferD1Ev@Qt_5 5.6.0
 _ZN10Qt3DRender14QTextureBufferD2Ev@Qt_5 5.6.0
 _ZN10Qt3DRender14QTorusGeometry11qt_metacallEN11QMetaObject4CallEiPPv@Qt_5 5.6.0
 _ZN10Qt3DRender14QTorusGeometry11qt_metacastEPKc@Qt_5 5.6.0
 _ZN10Qt3DRender14QTorusGeometry12ringsChangedEi@Qt_5 5.6.0
 _ZN10Qt3DRender14QTorusGeometry13radiusChangedEf@Qt_5 5.6.0
 _ZN10Qt3DRender14QTorusGeometry13slicesChangedEi@Qt_5 5.6.0
 _ZN10Qt3DRender14QTorusGeometry13updateIndicesEv@Qt_5 5.6.0
 _ZN10Qt3DRender14QTorusGeometry14setMinorRadiusEf@Qt_5 5.6.0
 _ZN10Qt3DRender14QTorusGeometry14updateVerticesEv@Qt_5 5.6.0
 _ZN10Qt3DRender14QTorusGeometry16staticMetaObjectE@Qt_5 5.6.0
 _ZN10Qt3DRender14QTorusGeometry18minorRadiusChangedEf@Qt_5 5.6.0
 _ZN10Qt3DRender14QTorusGeometry8setRingsEi@Qt_5 5.6.0
 _ZN10Qt3DRender14QTorusGeometry9setRadiusEf@Qt_5 5.6.0
 _ZN10Qt3DRender14QTorusGeometry9setSlicesEi@Qt_5 5.6.0
 _ZN10Qt3DRender14QTorusGeometryC1EPN8Qt3DCore5QNodeE@Qt_5 5.6.0
 _ZN10Qt3DRender14QTorusGeometryC1ERNS_21QTorusGeometryPrivateEPN8Qt3DCore5QNodeE@Qt_5 5.6.0
 _ZN10Qt3DRender14QTorusGeometryC2EPN8Qt3DCore5QNodeE@Qt_5 5.6.0
 _ZN10Qt3DRender14QTorusGeometryC2ERNS_21QTorusGeometryPrivateEPN8Qt3DCore5QNodeE@Qt_5 5.6.0
 _ZN10Qt3DRender14QTorusGeometryD0Ev@Qt_5 5.6.0
 _ZN10Qt3DRender14QTorusGeometryD1Ev@Qt_5 5.6.0
 _ZN10Qt3DRender14QTorusGeometryD2Ev@Qt_5 5.6.0
 _ZN10Qt3DRender15QAbstractBuffer11dataChangedERK10QByteArray@Qt_5 5.6.0
 _ZN10Qt3DRender15QAbstractBuffer11qt_metacallEN11QMetaObject4CallEiPPv@Qt_5 5.6.0
 _ZN10Qt3DRender15QAbstractBuffer11qt_metacastEPKc@Qt_5 5.6.0
 _ZN10Qt3DRender15QAbstractBuffer16staticMetaObjectE@Qt_5 5.6.0
 _ZN10Qt3DRender15QAbstractBuffer4copyEPKN8Qt3DCore5QNodeE@Qt_5 5.6.0
 _ZN10Qt3DRender15QAbstractBuffer7setDataERK10QByteArray@Qt_5 5.6.0
 _ZN10Qt3DRender15QAbstractBufferC1EPN8Qt3DCore5QNodeE@Qt_5 5.6.0
 _ZN10Qt3DRender15QAbstractBufferC1ERNS_22QAbstractBufferPrivateEPN8Qt3DCore5QNodeE@Qt_5 5.6.0
 _ZN10Qt3DRender15QAbstractBufferC2EPN8Qt3DCore5QNodeE@Qt_5 5.6.0
 _ZN10Qt3DRender15QAbstractBufferC2ERNS_22QAbstractBufferPrivateEPN8Qt3DCore5QNodeE@Qt_5 5.6.0
 _ZN10Qt3DRender15QAbstractBufferD0Ev@Qt_5 5.6.0
 _ZN10Qt3DRender15QAbstractBufferD1Ev@Qt_5 5.6.0
 _ZN10Qt3DRender15QAbstractBufferD2Ev@Qt_5 5.6.0
 _ZN10Qt3DRender15QBoundingSphereC1Ev@Qt_5 5.6.0
 _ZN10Qt3DRender15QBoundingSphereC2Ev@Qt_5 5.6.0
 _ZN10Qt3DRender15QBoundingSphereD0Ev@Qt_5 5.6.0
 _ZN10Qt3DRender15QBoundingSphereD1Ev@Qt_5 5.6.0
 _ZN10Qt3DRender15QBoundingSphereD2Ev@Qt_5 5.6.0
 _ZN10Qt3DRender15QBoundingVolumeC1Ev@Qt_5 5.6.0
 _ZN10Qt3DRender15QBoundingVolumeC2Ev@Qt_5 5.6.0
 _ZN10Qt3DRender15QBoundingVolumeD0Ev@Qt_5 5.6.0
 _ZN10Qt3DRender15QBoundingVolumeD1Ev@Qt_5 5.6.0
 _ZN10Qt3DRender15QBoundingVolumeD2Ev@Qt_5 5.6.0
 _ZN10Qt3DRender15QCameraSelector11qt_metacallEN11QMetaObject4CallEiPPv@Qt_5 5.6.0
 _ZN10Qt3DRender15QCameraSelector11qt_metacastEPKc@Qt_5 5.6.0
 _ZN10Qt3DRender15QCameraSelector13cameraChangedEPN8Qt3DCore7QEntityE@Qt_5 5.6.0
 _ZN10Qt3DRender15QCameraSelector16staticMetaObjectE@Qt_5 5.6.0
 _ZN10Qt3DRender15QCameraSelector4copyEPKN8Qt3DCore5QNodeE@Qt_5 5.6.0
 _ZN10Qt3DRender15QCameraSelector9setCameraEPN8Qt3DCore7QEntityE@Qt_5 5.6.0
 _ZN10Qt3DRender15QCameraSelectorC1EPN8Qt3DCore5QNodeE@Qt_5 5.6.0
 _ZN10Qt3DRender15QCameraSelectorC1ERNS_22QCameraSelectorPrivateEPN8Qt3DCore5QNodeE@Qt_5 5.6.0
 _ZN10Qt3DRender15QCameraSelectorC2EPN8Qt3DCore5QNodeE@Qt_5 5.6.0
 _ZN10Qt3DRender15QCameraSelectorC2ERNS_22QCameraSelectorPrivateEPN8Qt3DCore5QNodeE@Qt_5 5.6.0
 _ZN10Qt3DRender15QCameraSelectorD0Ev@Qt_5 5.6.0
 _ZN10Qt3DRender15QCameraSelectorD1Ev@Qt_5 5.6.0
 _ZN10Qt3DRender15QCameraSelectorD2Ev@Qt_5 5.6.0
 _ZN10Qt3DRender15QCuboidGeometry10setXExtentEf@Qt_5 5.6.0
 _ZN10Qt3DRender15QCuboidGeometry10setYExtentEf@Qt_5 5.6.0
 _ZN10Qt3DRender15QCuboidGeometry10setZExtentEf@Qt_5 5.6.0
 _ZN10Qt3DRender15QCuboidGeometry11qt_metacallEN11QMetaObject4CallEiPPv@Qt_5 5.6.0
 _ZN10Qt3DRender15QCuboidGeometry11qt_metacastEPKc@Qt_5 5.6.0
 _ZN10Qt3DRender15QCuboidGeometry13updateIndicesEv@Qt_5 5.6.0
 _ZN10Qt3DRender15QCuboidGeometry14updateVerticesEv@Qt_5 5.6.0
 _ZN10Qt3DRender15QCuboidGeometry14xExtentChangedEf@Qt_5 5.6.0
 _ZN10Qt3DRender15QCuboidGeometry14yExtentChangedEf@Qt_5 5.6.0
 _ZN10Qt3DRender15QCuboidGeometry14zExtentChangedEf@Qt_5 5.6.0
 _ZN10Qt3DRender15QCuboidGeometry16staticMetaObjectE@Qt_5 5.6.0
 _ZN10Qt3DRender15QCuboidGeometry19setXYMeshResolutionERK5QSize@Qt_5 5.6.0
 _ZN10Qt3DRender15QCuboidGeometry19setXZMeshResolutionERK5QSize@Qt_5 5.6.0
 _ZN10Qt3DRender15QCuboidGeometry19setYZMeshResolutionERK5QSize@Qt_5 5.6.0
 _ZN10Qt3DRender15QCuboidGeometry23xyMeshResolutionChangedERK5QSize@Qt_5 5.6.0
 _ZN10Qt3DRender15QCuboidGeometry23xzMeshResolutionChangedERK5QSize@Qt_5 5.6.0
 _ZN10Qt3DRender15QCuboidGeometry23yzMeshResolutionChangedERK5QSize@Qt_5 5.6.0
 _ZN10Qt3DRender15QCuboidGeometryC1EPN8Qt3DCore5QNodeE@Qt_5 5.6.0
 _ZN10Qt3DRender15QCuboidGeometryC1ERNS_22QCuboidGeometryPrivateEPN8Qt3DCore5QNodeE@Qt_5 5.6.0
 _ZN10Qt3DRender15QCuboidGeometryC2EPN8Qt3DCore5QNodeE@Qt_5 5.6.0
 _ZN10Qt3DRender15QCuboidGeometryC2ERNS_22QCuboidGeometryPrivateEPN8Qt3DCore5QNodeE@Qt_5 5.6.0
 _ZN10Qt3DRender15QCuboidGeometryD0Ev@Qt_5 5.6.0
 _ZN10Qt3DRender15QCuboidGeometryD1Ev@Qt_5 5.6.0
 _ZN10Qt3DRender15QCuboidGeometryD2Ev@Qt_5 5.6.0
 _ZN10Qt3DRender15QFrameGraphNode10setEnabledEb@Qt_5 5.6.0
 _ZN10Qt3DRender15QFrameGraphNode11qt_metacallEN11QMetaObject4CallEiPPv@Qt_5 5.6.0
 _ZN10Qt3DRender15QFrameGraphNode11qt_metacastEPKc@Qt_5 5.6.0
 _ZN10Qt3DRender15QFrameGraphNode14enabledChangedEb@Qt_5 5.6.0
 _ZN10Qt3DRender15QFrameGraphNode16staticMetaObjectE@Qt_5 5.6.0
 _ZN10Qt3DRender15QFrameGraphNodeC1EPN8Qt3DCore5QNodeE@Qt_5 5.6.0
 _ZN10Qt3DRender15QFrameGraphNodeC1ERNS_22QFrameGraphNodePrivateEPN8Qt3DCore5QNodeE@Qt_5 5.6.0
 _ZN10Qt3DRender15QFrameGraphNodeC2EPN8Qt3DCore5QNodeE@Qt_5 5.6.0
 _ZN10Qt3DRender15QFrameGraphNodeC2ERNS_22QFrameGraphNodePrivateEPN8Qt3DCore5QNodeE@Qt_5 5.6.0
 _ZN10Qt3DRender15QFrameGraphNodeD0Ev@Qt_5 5.6.0
 _ZN10Qt3DRender15QFrameGraphNodeD1Ev@Qt_5 5.6.0
 _ZN10Qt3DRender15QFrameGraphNodeD2Ev@Qt_5 5.6.0
 _ZN10Qt3DRender15QFrustumCulling11qt_metacallEN11QMetaObject4CallEiPPv@Qt_5 5.6.0
 _ZN10Qt3DRender15QFrustumCulling11qt_metacastEPKc@Qt_5 5.6.0
 _ZN10Qt3DRender15QFrustumCulling16staticMetaObjectE@Qt_5 5.6.0
 _ZN10Qt3DRender15QFrustumCullingC1EPN8Qt3DCore5QNodeE@Qt_5 5.6.0
 _ZN10Qt3DRender15QFrustumCullingC2EPN8Qt3DCore5QNodeE@Qt_5 5.6.0
 _ZN10Qt3DRender15QFrustumCullingD0Ev@Qt_5 5.6.0
 _ZN10Qt3DRender15QFrustumCullingD1Ev@Qt_5 5.6.0
 _ZN10Qt3DRender15QFrustumCullingD2Ev@Qt_5 5.6.0
 _ZN10Qt3DRender15QSphereGeometry11qt_metacallEN11QMetaObject4CallEiPPv@Qt_5 5.6.0
 _ZN10Qt3DRender15QSphereGeometry11qt_metacastEPKc@Qt_5 5.6.0
 _ZN10Qt3DRender15QSphereGeometry12ringsChangedEi@Qt_5 5.6.0
 _ZN10Qt3DRender15QSphereGeometry13radiusChangedEf@Qt_5 5.6.0
 _ZN10Qt3DRender15QSphereGeometry13slicesChangedEi@Qt_5 5.6.0
 _ZN10Qt3DRender15QSphereGeometry13updateIndicesEv@Qt_5 5.6.0
 _ZN10Qt3DRender15QSphereGeometry14updateVerticesEv@Qt_5 5.6.0
 _ZN10Qt3DRender15QSphereGeometry16staticMetaObjectE@Qt_5 5.6.0
 _ZN10Qt3DRender15QSphereGeometry19setGenerateTangentsEb@Qt_5 5.6.0
 _ZN10Qt3DRender15QSphereGeometry23generateTangentsChangedEb@Qt_5 5.6.0
 _ZN10Qt3DRender15QSphereGeometry8setRingsEi@Qt_5 5.6.0
 _ZN10Qt3DRender15QSphereGeometry9setRadiusEf@Qt_5 5.6.0
 _ZN10Qt3DRender15QSphereGeometry9setSlicesEi@Qt_5 5.6.0
 _ZN10Qt3DRender15QSphereGeometryC1EPN8Qt3DCore5QNodeE@Qt_5 5.6.0
 _ZN10Qt3DRender15QSphereGeometryC1ERNS_22QSphereGeometryPrivateEPN8Qt3DCore5QNodeE@Qt_5 5.6.0
 _ZN10Qt3DRender15QSphereGeometryC2EPN8Qt3DCore5QNodeE@Qt_5 5.6.0
 _ZN10Qt3DRender15QSphereGeometryC2ERNS_22QSphereGeometryPrivateEPN8Qt3DCore5QNodeE@Qt_5 5.6.0
 _ZN10Qt3DRender15QSphereGeometryD0Ev@Qt_5 5.6.0
 _ZN10Qt3DRender15QSphereGeometryD1Ev@Qt_5 5.6.0
 _ZN10Qt3DRender15QSphereGeometryD2Ev@Qt_5 5.6.0
 _ZN10Qt3DRender15QTexture1DArray11qt_metacallEN11QMetaObject4CallEiPPv@Qt_5 5.6.0
 _ZN10Qt3DRender15QTexture1DArray11qt_metacastEPKc@Qt_5 5.6.0
 _ZN10Qt3DRender15QTexture1DArray16staticMetaObjectE@Qt_5 5.6.0
 _ZN10Qt3DRender15QTexture1DArrayC1EPN8Qt3DCore5QNodeE@Qt_5 5.6.0
 _ZN10Qt3DRender15QTexture1DArrayC2EPN8Qt3DCore5QNodeE@Qt_5 5.6.0
 _ZN10Qt3DRender15QTexture1DArrayD0Ev@Qt_5 5.6.0
 _ZN10Qt3DRender15QTexture1DArrayD1Ev@Qt_5 5.6.0
 _ZN10Qt3DRender15QTexture1DArrayD2Ev@Qt_5 5.6.0
 _ZN10Qt3DRender15QTexture2DArray11qt_metacallEN11QMetaObject4CallEiPPv@Qt_5 5.6.0
 _ZN10Qt3DRender15QTexture2DArray11qt_metacastEPKc@Qt_5 5.6.0
 _ZN10Qt3DRender15QTexture2DArray16staticMetaObjectE@Qt_5 5.6.0
 _ZN10Qt3DRender15QTexture2DArrayC1EPN8Qt3DCore5QNodeE@Qt_5 5.6.0
 _ZN10Qt3DRender15QTexture2DArrayC2EPN8Qt3DCore5QNodeE@Qt_5 5.6.0
 _ZN10Qt3DRender15QTexture2DArrayD0Ev@Qt_5 5.6.0
 _ZN10Qt3DRender15QTexture2DArrayD1Ev@Qt_5 5.6.0
 _ZN10Qt3DRender15QTexture2DArrayD2Ev@Qt_5 5.6.0
 _ZN10Qt3DRender15QTextureCubeMap11qt_metacallEN11QMetaObject4CallEiPPv@Qt_5 5.6.0
 _ZN10Qt3DRender15QTextureCubeMap11qt_metacastEPKc@Qt_5 5.6.0
 _ZN10Qt3DRender15QTextureCubeMap16staticMetaObjectE@Qt_5 5.6.0
 _ZN10Qt3DRender15QTextureCubeMapC1EPN8Qt3DCore5QNodeE@Qt_5 5.6.0
 _ZN10Qt3DRender15QTextureCubeMapC2EPN8Qt3DCore5QNodeE@Qt_5 5.6.0
 _ZN10Qt3DRender15QTextureCubeMapD0Ev@Qt_5 5.6.0
 _ZN10Qt3DRender15QTextureCubeMapD1Ev@Qt_5 5.6.0
 _ZN10Qt3DRender15QTextureCubeMapD2Ev@Qt_5 5.6.0
 _ZN10Qt3DRender16QAbstractFunctorD0Ev@Qt_5 5.6.0
 _ZN10Qt3DRender16QAbstractFunctorD1Ev@Qt_5 5.6.0
 _ZN10Qt3DRender16QAbstractFunctorD2Ev@Qt_5 5.6.0
 _ZN10Qt3DRender16QDispatchCompute11qt_metacallEN11QMetaObject4CallEiPPv@Qt_5 5.6.0
 _ZN10Qt3DRender16QDispatchCompute11qt_metacastEPKc@Qt_5 5.6.0
 _ZN10Qt3DRender16QDispatchCompute13setWorkGroupXEi@Qt_5 5.6.0
 _ZN10Qt3DRender16QDispatchCompute13setWorkGroupYEi@Qt_5 5.6.0
 _ZN10Qt3DRender16QDispatchCompute13setWorkGroupZEi@Qt_5 5.6.0
 _ZN10Qt3DRender16QDispatchCompute16staticMetaObjectE@Qt_5 5.6.0
 _ZN10Qt3DRender16QDispatchCompute17workGroupXChangedEv@Qt_5 5.6.0
 _ZN10Qt3DRender16QDispatchCompute17workGroupYChangedEv@Qt_5 5.6.0
 _ZN10Qt3DRender16QDispatchCompute17workGroupZChangedEv@Qt_5 5.6.0
 _ZN10Qt3DRender16QDispatchCompute4copyEPKN8Qt3DCore5QNodeE@Qt_5 5.6.0
 _ZN10Qt3DRender16QDispatchComputeC1EPN8Qt3DCore5QNodeE@Qt_5 5.6.0
 _ZN10Qt3DRender16QDispatchComputeC2EPN8Qt3DCore5QNodeE@Qt_5 5.6.0
 _ZN10Qt3DRender16QDispatchComputeD0Ev@Qt_5 5.6.0
 _ZN10Qt3DRender16QDispatchComputeD1Ev@Qt_5 5.6.0
 _ZN10Qt3DRender16QDispatchComputeD2Ev@Qt_5 5.6.0
 _ZN10Qt3DRender16QForwardRenderer11qt_metacallEN11QMetaObject4CallEiPPv@Qt_5 5.6.0
 _ZN10Qt3DRender16QForwardRenderer11qt_metacastEPKc@Qt_5 5.6.0
 _ZN10Qt3DRender16QForwardRenderer13cameraChangedEPN8Qt3DCore7QEntityE@Qt_5 5.6.0
 _ZN10Qt3DRender16QForwardRenderer13setClearColorERK6QColor@Qt_5 5.6.0
 _ZN10Qt3DRender16QForwardRenderer15setViewportRectERK6QRectF@Qt_5 5.6.0
 _ZN10Qt3DRender16QForwardRenderer16staticMetaObjectE@Qt_5 5.6.0
 _ZN10Qt3DRender16QForwardRenderer17clearColorChangedERK6QColor@Qt_5 5.6.0
 _ZN10Qt3DRender16QForwardRenderer19viewportRectChangedERK6QRectF@Qt_5 5.6.0
 _ZN10Qt3DRender16QForwardRenderer9setCameraEPN8Qt3DCore7QEntityE@Qt_5 5.6.0
 _ZN10Qt3DRender16QForwardRendererC1EPN8Qt3DCore5QNodeE@Qt_5 5.6.0
 _ZN10Qt3DRender16QForwardRendererC2EPN8Qt3DCore5QNodeE@Qt_5 5.6.0
 _ZN10Qt3DRender16QForwardRendererD0Ev@Qt_5 5.6.0
 _ZN10Qt3DRender16QForwardRendererD1Ev@Qt_5 5.6.0
 _ZN10Qt3DRender16QForwardRendererD2Ev@Qt_5 5.6.0
 _ZN10Qt3DRender16QItemModelBuffer11RoleMappingC1E10QByteArray7QStringi@Qt_5 5.6.0
 _ZN10Qt3DRender16QItemModelBuffer11RoleMappingC2E10QByteArray7QStringi@Qt_5 5.6.0
 _ZN10Qt3DRender16QItemModelBuffer11mapRoleNameE10QByteArray7QStringi@Qt_5 5.6.0
 _ZN10Qt3DRender16QItemModelBuffer11mapRoleNameE10QByteArrayi@Qt_5 5.6.0
 _ZN10Qt3DRender16QItemModelBuffer11qt_metacallEN11QMetaObject4CallEiPPv@Qt_5 5.6.0
 _ZN10Qt3DRender16QItemModelBuffer11qt_metacastEPKc@Qt_5 5.6.0
 _ZN10Qt3DRender16QItemModelBuffer12onModelResetEv@Qt_5 5.6.0
 _ZN10Qt3DRender16QItemModelBuffer13validateRolesEv@Qt_5 5.6.0
 _ZN10Qt3DRender16QItemModelBuffer16staticMetaObjectE@Qt_5 5.6.0
 _ZN10Qt3DRender16QItemModelBuffer17computeBufferDataEv@Qt_5 5.6.0
 _ZN10Qt3DRender16QItemModelBuffer17writeDataForIndexERK11QModelIndexiPc@Qt_5 5.6.0
 _ZN10Qt3DRender16QItemModelBuffer18onModelDataChangedERK11QModelIndexS3_@Qt_5 5.6.0
 _ZN10Qt3DRender16QItemModelBuffer6bufferEv@Qt_5 5.6.0
 _ZN10Qt3DRender16QItemModelBuffer7setRootERK11QModelIndex@Qt_5 5.6.0
 _ZN10Qt3DRender16QItemModelBuffer8setModelEP18QAbstractItemModel@Qt_5 5.6.0
 _ZN10Qt3DRender16QItemModelBufferC1Ev@Qt_5 5.6.0
 _ZN10Qt3DRender16QItemModelBufferC2Ev@Qt_5 5.6.0
 _ZN10Qt3DRender16QTechniqueFilter11qt_metacallEN11QMetaObject4CallEiPPv@Qt_5 5.6.0
 _ZN10Qt3DRender16QTechniqueFilter11qt_metacastEPKc@Qt_5 5.6.0
 _ZN10Qt3DRender16QTechniqueFilter12addParameterEPNS_10QParameterE@Qt_5 5.6.0
 _ZN10Qt3DRender16QTechniqueFilter14addRequirementEPNS_11QAnnotationE@Qt_5 5.6.0
 _ZN10Qt3DRender16QTechniqueFilter15removeParameterEPNS_10QParameterE@Qt_5 5.6.0
 _ZN10Qt3DRender16QTechniqueFilter16staticMetaObjectE@Qt_5 5.6.0
 _ZN10Qt3DRender16QTechniqueFilter17removeRequirementEPNS_11QAnnotationE@Qt_5 5.6.0
 _ZN10Qt3DRender16QTechniqueFilter4copyEPKN8Qt3DCore5QNodeE@Qt_5 5.6.0
 _ZN10Qt3DRender16QTechniqueFilterC1EPN8Qt3DCore5QNodeE@Qt_5 5.6.0
 _ZN10Qt3DRender16QTechniqueFilterC1ERNS_23QTechniqueFilterPrivateEPN8Qt3DCore5QNodeE@Qt_5 5.6.0
 _ZN10Qt3DRender16QTechniqueFilterC2EPN8Qt3DCore5QNodeE@Qt_5 5.6.0
 _ZN10Qt3DRender16QTechniqueFilterC2ERNS_23QTechniqueFilterPrivateEPN8Qt3DCore5QNodeE@Qt_5 5.6.0
 _ZN10Qt3DRender16QTechniqueFilterD0Ev@Qt_5 5.6.0
 _ZN10Qt3DRender16QTechniqueFilterD1Ev@Qt_5 5.6.0
 _ZN10Qt3DRender16QTechniqueFilterD2Ev@Qt_5 5.6.0
 _ZN10Qt3DRender16QTextureWrapMode11qt_metacallEN11QMetaObject4CallEiPPv@Qt_5 5.6.0
 _ZN10Qt3DRender16QTextureWrapMode11qt_metacastEPKc@Qt_5 5.6.0
 _ZN10Qt3DRender16QTextureWrapMode16staticMetaObjectE@Qt_5 5.6.0
 _ZN10Qt3DRender16QTextureWrapMode4setXENS0_8WrapModeE@Qt_5 5.6.0
 _ZN10Qt3DRender16QTextureWrapMode4setYENS0_8WrapModeE@Qt_5 5.6.0
 _ZN10Qt3DRender16QTextureWrapMode4setZENS0_8WrapModeE@Qt_5 5.6.0
 _ZN10Qt3DRender16QTextureWrapMode8xChangedENS0_8WrapModeE@Qt_5 5.6.0
 _ZN10Qt3DRender16QTextureWrapMode8yChangedENS0_8WrapModeE@Qt_5 5.6.0
 _ZN10Qt3DRender16QTextureWrapMode8zChangedENS0_8WrapModeE@Qt_5 5.6.0
 _ZN10Qt3DRender16QTextureWrapModeC1ENS0_8WrapModeEP7QObject@Qt_5 5.6.0
 _ZN10Qt3DRender16QTextureWrapModeC1ENS0_8WrapModeES1_S1_P7QObject@Qt_5 5.6.0
 _ZN10Qt3DRender16QTextureWrapModeC2ENS0_8WrapModeEP7QObject@Qt_5 5.6.0
 _ZN10Qt3DRender16QTextureWrapModeC2ENS0_8WrapModeES1_S1_P7QObject@Qt_5 5.6.0
 _ZN10Qt3DRender17QAttributePrivateC1Ev@Qt_5 5.6.0
 _ZN10Qt3DRender17QAttributePrivateC2Ev@Qt_5 5.6.0
 _ZN10Qt3DRender17QCylinderGeometry11qt_metacallEN11QMetaObject4CallEiPPv@Qt_5 5.6.0
 _ZN10Qt3DRender17QCylinderGeometry11qt_metacastEPKc@Qt_5 5.6.0
 _ZN10Qt3DRender17QCylinderGeometry12ringsChangedEi@Qt_5 5.6.0
 _ZN10Qt3DRender17QCylinderGeometry13lengthChangedEf@Qt_5 5.6.0
 _ZN10Qt3DRender17QCylinderGeometry13radiusChangedEf@Qt_5 5.6.0
 _ZN10Qt3DRender17QCylinderGeometry13slicesChangedEi@Qt_5 5.6.0
 _ZN10Qt3DRender17QCylinderGeometry13updateIndicesEv@Qt_5 5.6.0
 _ZN10Qt3DRender17QCylinderGeometry14updateVerticesEv@Qt_5 5.6.0
 _ZN10Qt3DRender17QCylinderGeometry16staticMetaObjectE@Qt_5 5.6.0
 _ZN10Qt3DRender17QCylinderGeometry8setRingsEi@Qt_5 5.6.0
 _ZN10Qt3DRender17QCylinderGeometry9setLengthEf@Qt_5 5.6.0
 _ZN10Qt3DRender17QCylinderGeometry9setRadiusEf@Qt_5 5.6.0
 _ZN10Qt3DRender17QCylinderGeometry9setSlicesEi@Qt_5 5.6.0
 _ZN10Qt3DRender17QCylinderGeometryC1EPN8Qt3DCore5QNodeE@Qt_5 5.6.0
 _ZN10Qt3DRender17QCylinderGeometryC1ERNS_24QCylinderGeometryPrivateEPN8Qt3DCore5QNodeE@Qt_5 5.6.0
 _ZN10Qt3DRender17QCylinderGeometryC2EPN8Qt3DCore5QNodeE@Qt_5 5.6.0
 _ZN10Qt3DRender17QCylinderGeometryC2ERNS_24QCylinderGeometryPrivateEPN8Qt3DCore5QNodeE@Qt_5 5.6.0
 _ZN10Qt3DRender17QCylinderGeometryD0Ev@Qt_5 5.6.0
 _ZN10Qt3DRender17QCylinderGeometryD1Ev@Qt_5 5.6.0
 _ZN10Qt3DRender17QCylinderGeometryD2Ev@Qt_5 5.6.0
 _ZN10Qt3DRender17QDirectionalLight11qt_metacallEN11QMetaObject4CallEiPPv@Qt_5 5.6.0
 _ZN10Qt3DRender17QDirectionalLight11qt_metacastEPKc@Qt_5 5.6.0
 _ZN10Qt3DRender17QDirectionalLight12setDirectionERK9QVector3D@Qt_5 5.6.0
 _ZN10Qt3DRender17QDirectionalLight16directionChangedERK9QVector3D@Qt_5 5.6.0
 _ZN10Qt3DRender17QDirectionalLight16staticMetaObjectE@Qt_5 5.6.0
 _ZN10Qt3DRender17QDirectionalLight4copyEPKN8Qt3DCore5QNodeE@Qt_5 5.6.0
 _ZN10Qt3DRender17QDirectionalLightC1EPN8Qt3DCore5QNodeE@Qt_5 5.6.0
 _ZN10Qt3DRender17QDirectionalLightC1ERNS_24QDirectionalLightPrivateEPN8Qt3DCore5QNodeE@Qt_5 5.6.0
 _ZN10Qt3DRender17QDirectionalLightC2EPN8Qt3DCore5QNodeE@Qt_5 5.6.0
 _ZN10Qt3DRender17QDirectionalLightC2ERNS_24QDirectionalLightPrivateEPN8Qt3DCore5QNodeE@Qt_5 5.6.0
 _ZN10Qt3DRender17QGeometryRenderer11qt_metacallEN11QMetaObject4CallEiPPv@Qt_5 5.6.0
 _ZN10Qt3DRender17QGeometryRenderer11qt_metacastEPKc@Qt_5 5.6.0
 _ZN10Qt3DRender17QGeometryRenderer11setGeometryEPNS_9QGeometryE@Qt_5 5.6.0
 _ZN10Qt3DRender17QGeometryRenderer13setBaseVertexEi@Qt_5 5.6.0
 _ZN10Qt3DRender17QGeometryRenderer15geometryChangedEPNS_9QGeometryE@Qt_5 5.6.0
 _ZN10Qt3DRender17QGeometryRenderer15setBaseInstanceEi@Qt_5 5.6.0
 _ZN10Qt3DRender17QGeometryRenderer15setRestartIndexEi@Qt_5 5.6.0
 _ZN10Qt3DRender17QGeometryRenderer16sceneChangeEventERK14QSharedPointerIN8Qt3DCore12QSceneChangeEE@Qt_5 5.6.0
 _ZN10Qt3DRender17QGeometryRenderer16setInstanceCountEi@Qt_5 5.6.0
 _ZN10Qt3DRender17QGeometryRenderer16setPrimitiveTypeENS0_13PrimitiveTypeE@Qt_5 5.6.0
 _ZN10Qt3DRender17QGeometryRenderer16staticMetaObjectE@Qt_5 5.6.0
 _ZN10Qt3DRender17QGeometryRenderer17baseVertexChangedEi@Qt_5 5.6.0
 _ZN10Qt3DRender17QGeometryRenderer17setPrimitiveCountEi@Qt_5 5.6.0
 _ZN10Qt3DRender17QGeometryRenderer18setGeometryFunctorERK14QSharedPointerINS_16QGeometryFunctorEE@Qt_5 5.6.0
 _ZN10Qt3DRender17QGeometryRenderer19baseInstanceChangedEi@Qt_5 5.6.0
 _ZN10Qt3DRender17QGeometryRenderer19restartIndexChangedEi@Qt_5 5.6.0
 _ZN10Qt3DRender17QGeometryRenderer19setPrimitiveRestartEb@Qt_5 5.6.0
 _ZN10Qt3DRender17QGeometryRenderer20instanceCountChangedEi@Qt_5 5.6.0
 _ZN10Qt3DRender17QGeometryRenderer20primitiveTypeChangedENS0_13PrimitiveTypeE@Qt_5 5.6.0
 _ZN10Qt3DRender17QGeometryRenderer21primitiveCountChangedEi@Qt_5 5.6.0
 _ZN10Qt3DRender17QGeometryRenderer23primitiveRestartChangedEb@Qt_5 5.6.0
 _ZN10Qt3DRender17QGeometryRenderer4copyEPKN8Qt3DCore5QNodeE@Qt_5 5.6.0
 _ZN10Qt3DRender17QGeometryRendererC1EPN8Qt3DCore5QNodeE@Qt_5 5.6.0
 _ZN10Qt3DRender17QGeometryRendererC1ERNS_24QGeometryRendererPrivateEPN8Qt3DCore5QNodeE@Qt_5 5.6.0
 _ZN10Qt3DRender17QGeometryRendererC2EPN8Qt3DCore5QNodeE@Qt_5 5.6.0
 _ZN10Qt3DRender17QGeometryRendererC2ERNS_24QGeometryRendererPrivateEPN8Qt3DCore5QNodeE@Qt_5 5.6.0
 _ZN10Qt3DRender17QGeometryRendererD0Ev@Qt_5 5.6.0
 _ZN10Qt3DRender17QGeometryRendererD1Ev@Qt_5 5.6.0
 _ZN10Qt3DRender17QGeometryRendererD2Ev@Qt_5 5.6.0
 _ZN10Qt3DRender17QParameterMapping11qt_metacallEN11QMetaObject4CallEiPPv@Qt_5 5.6.0
 _ZN10Qt3DRender17QParameterMapping11qt_metacastEPKc@Qt_5 5.6.0
 _ZN10Qt3DRender17QParameterMapping14setBindingTypeENS0_7BindingE@Qt_5 5.6.0
 _ZN10Qt3DRender17QParameterMapping16setParameterNameERK7QString@Qt_5 5.6.0
 _ZN10Qt3DRender17QParameterMapping16staticMetaObjectE@Qt_5 5.6.0
 _ZN10Qt3DRender17QParameterMapping18bindingTypeChangedENS0_7BindingE@Qt_5 5.6.0
 _ZN10Qt3DRender17QParameterMapping20parameterNameChangedERK7QString@Qt_5 5.6.0
 _ZN10Qt3DRender17QParameterMapping21setShaderVariableNameERK7QString@Qt_5 5.6.0
 _ZN10Qt3DRender17QParameterMapping25shaderVariableNameChangedERK7QString@Qt_5 5.6.0
 _ZN10Qt3DRender17QParameterMapping4copyEPKN8Qt3DCore5QNodeE@Qt_5 5.6.0
 _ZN10Qt3DRender17QParameterMappingC1EPN8Qt3DCore5QNodeE@Qt_5 5.6.0
 _ZN10Qt3DRender17QParameterMappingC1ERK7QStringS3_NS0_7BindingEPN8Qt3DCore5QNodeE@Qt_5 5.6.0
 _ZN10Qt3DRender17QParameterMappingC1ERNS_24QParameterMappingPrivateEPN8Qt3DCore5QNodeE@Qt_5 5.6.0
 _ZN10Qt3DRender17QParameterMappingC2EPN8Qt3DCore5QNodeE@Qt_5 5.6.0
 _ZN10Qt3DRender17QParameterMappingC2ERK7QStringS3_NS0_7BindingEPN8Qt3DCore5QNodeE@Qt_5 5.6.0
 _ZN10Qt3DRender17QParameterMappingC2ERNS_24QParameterMappingPrivateEPN8Qt3DCore5QNodeE@Qt_5 5.6.0
 _ZN10Qt3DRender17QParameterMappingD0Ev@Qt_5 5.6.0
 _ZN10Qt3DRender17QParameterMappingD1Ev@Qt_5 5.6.0
 _ZN10Qt3DRender17QParameterMappingD2Ev@Qt_5 5.6.0
 _ZN10Qt3DRender17QParameterPrivate8setValueERK8QVariant@Qt_5 5.6.0
 _ZN10Qt3DRender17QParameterPrivateC1Ev@Qt_5 5.6.0
 _ZN10Qt3DRender17QParameterPrivateC2Ev@Qt_5 5.6.0
 _ZN10Qt3DRender17QRenderAttachment10setTextureEPNS_24QAbstractTextureProviderE@Qt_5 5.6.0
 _ZN10Qt3DRender17QRenderAttachment11faceChangedENS0_11CubeMapFaceE@Qt_5 5.6.0
 _ZN10Qt3DRender17QRenderAttachment11nameChangedERK7QString@Qt_5 5.6.0
 _ZN10Qt3DRender17QRenderAttachment11qt_metacallEN11QMetaObject4CallEiPPv@Qt_5 5.6.0
 _ZN10Qt3DRender17QRenderAttachment11qt_metacastEPKc@Qt_5 5.6.0
 _ZN10Qt3DRender17QRenderAttachment11setMipLevelEi@Qt_5 5.6.0
 _ZN10Qt3DRender17QRenderAttachment11typeChangedENS0_20RenderAttachmentTypeE@Qt_5 5.6.0
 _ZN10Qt3DRender17QRenderAttachment12layerChangedEi@Qt_5 5.6.0
 _ZN10Qt3DRender17QRenderAttachment14textureChangedEPNS_24QAbstractTextureProviderE@Qt_5 5.6.0
 _ZN10Qt3DRender17QRenderAttachment15mipLevelChangedEi@Qt_5 5.6.0
 _ZN10Qt3DRender17QRenderAttachment16staticMetaObjectE@Qt_5 5.6.0
 _ZN10Qt3DRender17QRenderAttachment4copyEPKN8Qt3DCore5QNodeE@Qt_5 5.6.0
 _ZN10Qt3DRender17QRenderAttachment7setFaceENS0_11CubeMapFaceE@Qt_5 5.6.0
 _ZN10Qt3DRender17QRenderAttachment7setNameERK7QString@Qt_5 5.6.0
 _ZN10Qt3DRender17QRenderAttachment7setTypeENS0_20RenderAttachmentTypeE@Qt_5 5.6.0
 _ZN10Qt3DRender17QRenderAttachment8setLayerEi@Qt_5 5.6.0
 _ZN10Qt3DRender17QRenderAttachmentC1EPN8Qt3DCore5QNodeE@Qt_5 5.6.0
 _ZN10Qt3DRender17QRenderAttachmentC1ERNS_24QRenderAttachmentPrivateEPN8Qt3DCore5QNodeE@Qt_5 5.6.0
 _ZN10Qt3DRender17QRenderAttachmentC2EPN8Qt3DCore5QNodeE@Qt_5 5.6.0
 _ZN10Qt3DRender17QRenderAttachmentC2ERNS_24QRenderAttachmentPrivateEPN8Qt3DCore5QNodeE@Qt_5 5.6.0
 _ZN10Qt3DRender17QRenderAttachmentD0Ev@Qt_5 5.6.0
 _ZN10Qt3DRender17QRenderAttachmentD1Ev@Qt_5 5.6.0
 _ZN10Qt3DRender17QRenderAttachmentD2Ev@Qt_5 5.6.0
 _ZN10Qt3DRender17QRenderPassFilter10addIncludeEPNS_11QAnnotationE@Qt_5 5.6.0
 _ZN10Qt3DRender17QRenderPassFilter11qt_metacallEN11QMetaObject4CallEiPPv@Qt_5 5.6.0
 _ZN10Qt3DRender17QRenderPassFilter11qt_metacastEPKc@Qt_5 5.6.0
 _ZN10Qt3DRender17QRenderPassFilter12addParameterEPNS_10QParameterE@Qt_5 5.6.0
 _ZN10Qt3DRender17QRenderPassFilter13removeIncludeEPNS_11QAnnotationE@Qt_5 5.6.0
 _ZN10Qt3DRender17QRenderPassFilter15removeParameterEPNS_10QParameterE@Qt_5 5.6.0
 _ZN10Qt3DRender17QRenderPassFilter16staticMetaObjectE@Qt_5 5.6.0
 _ZN10Qt3DRender17QRenderPassFilter4copyEPKN8Qt3DCore5QNodeE@Qt_5 5.6.0
 _ZN10Qt3DRender17QRenderPassFilterC1EPN8Qt3DCore5QNodeE@Qt_5 5.6.0
 _ZN10Qt3DRender17QRenderPassFilterC1ERNS_24QRenderPassFilterPrivateEPN8Qt3DCore5QNodeE@Qt_5 5.6.0
 _ZN10Qt3DRender17QRenderPassFilterC2EPN8Qt3DCore5QNodeE@Qt_5 5.6.0
 _ZN10Qt3DRender17QRenderPassFilterC2ERNS_24QRenderPassFilterPrivateEPN8Qt3DCore5QNodeE@Qt_5 5.6.0
 _ZN10Qt3DRender17QRenderPassFilterD0Ev@Qt_5 5.6.0
 _ZN10Qt3DRender17QRenderPassFilterD1Ev@Qt_5 5.6.0
 _ZN10Qt3DRender17QRenderPassFilterD2Ev@Qt_5 5.6.0
 _ZN10Qt3DRender17QTextureRectangle11qt_metacallEN11QMetaObject4CallEiPPv@Qt_5 5.6.0
 _ZN10Qt3DRender17QTextureRectangle11qt_metacastEPKc@Qt_5 5.6.0
 _ZN10Qt3DRender17QTextureRectangle16staticMetaObjectE@Qt_5 5.6.0
 _ZN10Qt3DRender17QTextureRectangleC1EPN8Qt3DCore5QNodeE@Qt_5 5.6.0
 _ZN10Qt3DRender17QTextureRectangleC2EPN8Qt3DCore5QNodeE@Qt_5 5.6.0
 _ZN10Qt3DRender17QTextureRectangleD0Ev@Qt_5 5.6.0
 _ZN10Qt3DRender17QTextureRectangleD1Ev@Qt_5 5.6.0
 _ZN10Qt3DRender17QTextureRectangleD2Ev@Qt_5 5.6.0
 _ZN10Qt3DRender18QAbstractAttribute10setDivisorEj@Qt_5 5.6.0
 _ZN10Qt3DRender18QAbstractAttribute11nameChangedERK7QString@Qt_5 5.6.0
 _ZN10Qt3DRender18QAbstractAttribute11qt_metacallEN11QMetaObject4CallEiPPv@Qt_5 5.6.0
 _ZN10Qt3DRender18QAbstractAttribute11qt_metacastEPKc@Qt_5 5.6.0
 _ZN10Qt3DRender18QAbstractAttribute11setDataSizeEj@Qt_5 5.6.0
 _ZN10Qt3DRender18QAbstractAttribute11setDataTypeENS0_8DataTypeE@Qt_5 5.6.0
 _ZN10Qt3DRender18QAbstractAttribute12countChangedEj@Qt_5 5.6.0
 _ZN10Qt3DRender18QAbstractAttribute13bufferChangedEPNS_15QAbstractBufferE@Qt_5 5.6.0
 _ZN10Qt3DRender18QAbstractAttribute13setByteOffsetEj@Qt_5 5.6.0
 _ZN10Qt3DRender18QAbstractAttribute13setByteStrideEj@Qt_5 5.6.0
 _ZN10Qt3DRender18QAbstractAttribute14divisorChangedEj@Qt_5 5.6.0
 _ZN10Qt3DRender18QAbstractAttribute15dataSizeChangedEj@Qt_5 5.6.0
 _ZN10Qt3DRender18QAbstractAttribute15dataTypeChangedENS0_8DataTypeE@Qt_5 5.6.0
 _ZN10Qt3DRender18QAbstractAttribute16setAttributeTypeENS0_13AttributeTypeE@Qt_5 5.6.0
 _ZN10Qt3DRender18QAbstractAttribute16staticMetaObjectE@Qt_5 5.6.0
 _ZN10Qt3DRender18QAbstractAttribute17byteOffsetChangedEj@Qt_5 5.6.0
 _ZN10Qt3DRender18QAbstractAttribute17byteStrideChangedEj@Qt_5 5.6.0
 _ZN10Qt3DRender18QAbstractAttribute20attributeTypeChangedENS0_13AttributeTypeE@Qt_5 5.6.0
 _ZN10Qt3DRender18QAbstractAttribute4copyEPKN8Qt3DCore5QNodeE@Qt_5 5.6.0
 _ZN10Qt3DRender18QAbstractAttribute7setNameERK7QString@Qt_5 5.6.0
 _ZN10Qt3DRender18QAbstractAttribute8setCountEj@Qt_5 5.6.0
 _ZN10Qt3DRender18QAbstractAttribute9setBufferEPNS_15QAbstractBufferE@Qt_5 5.6.0
 _ZN10Qt3DRender18QAbstractAttributeC1EPN8Qt3DCore5QNodeE@Qt_5 5.6.0
 _ZN10Qt3DRender18QAbstractAttributeC1EPNS_15QAbstractBufferENS0_8DataTypeEjjjjPN8Qt3DCore5QNodeE@Qt_5 5.6.0
 _ZN10Qt3DRender18QAbstractAttributeC1ERNS_25QAbstractAttributePrivateEPN8Qt3DCore5QNodeE@Qt_5 5.6.0
 _ZN10Qt3DRender18QAbstractAttributeC1ERNS_25QAbstractAttributePrivateEPNS_15QAbstractBufferERK7QStringNS0_8DataTypeEjjjjPN8Qt3DCore5QNodeE@Qt_5 5.6.0
 _ZN10Qt3DRender18QAbstractAttributeC2EPN8Qt3DCore5QNodeE@Qt_5 5.6.0
 _ZN10Qt3DRender18QAbstractAttributeC2EPNS_15QAbstractBufferENS0_8DataTypeEjjjjPN8Qt3DCore5QNodeE@Qt_5 5.6.0
 _ZN10Qt3DRender18QAbstractAttributeC2ERNS_25QAbstractAttributePrivateEPN8Qt3DCore5QNodeE@Qt_5 5.6.0
 _ZN10Qt3DRender18QAbstractAttributeC2ERNS_25QAbstractAttributePrivateEPNS_15QAbstractBufferERK7QStringNS0_8DataTypeEjjjjPN8Qt3DCore5QNodeE@Qt_5 5.6.0
 _ZN10Qt3DRender18QAbstractAttributeD0Ev@Qt_5 5.6.0
 _ZN10Qt3DRender18QAbstractAttributeD1Ev@Qt_5 5.6.0
 _ZN10Qt3DRender18QAbstractAttributeD2Ev@Qt_5 5.6.0
 _ZN10Qt3DRender18QGraphicsApiFilter10apiChangedENS0_3ApiE@Qt_5 5.6.0
 _ZN10Qt3DRender18QGraphicsApiFilter10setProfileENS0_7ProfileE@Qt_5 5.6.0
 _ZN10Qt3DRender18QGraphicsApiFilter11qt_metacallEN11QMetaObject4CallEiPPv@Qt_5 5.6.0
 _ZN10Qt3DRender18QGraphicsApiFilter11qt_metacastEPKc@Qt_5 5.6.0
 _ZN10Qt3DRender18QGraphicsApiFilter13setExtensionsERK11QStringList@Qt_5 5.6.0
 _ZN10Qt3DRender18QGraphicsApiFilter13vendorChangedERK7QString@Qt_5 5.6.0
 _ZN10Qt3DRender18QGraphicsApiFilter14profileChangedENS0_7ProfileE@Qt_5 5.6.0
 _ZN10Qt3DRender18QGraphicsApiFilter15setMajorVersionEi@Qt_5 5.6.0
 _ZN10Qt3DRender18QGraphicsApiFilter15setMinorVersionEi@Qt_5 5.6.0
 _ZN10Qt3DRender18QGraphicsApiFilter16staticMetaObjectE@Qt_5 5.6.0
 _ZN10Qt3DRender18QGraphicsApiFilter17extensionsChangedERK11QStringList@Qt_5 5.6.0
 _ZN10Qt3DRender18QGraphicsApiFilter19majorVersionChangedEi@Qt_5 5.6.0
 _ZN10Qt3DRender18QGraphicsApiFilter19minorVersionChangedEi@Qt_5 5.6.0
 _ZN10Qt3DRender18QGraphicsApiFilter24graphicsApiFilterChangedEv@Qt_5 5.6.0
 _ZN10Qt3DRender18QGraphicsApiFilter4copyERKS0_@Qt_5 5.6.0
 _ZN10Qt3DRender18QGraphicsApiFilter6setApiENS0_3ApiE@Qt_5 5.6.0
 _ZN10Qt3DRender18QGraphicsApiFilter9setVendorERK7QString@Qt_5 5.6.0
 _ZN10Qt3DRender18QGraphicsApiFilterC1EP7QObject@Qt_5 5.6.0
 _ZN10Qt3DRender18QGraphicsApiFilterC2EP7QObject@Qt_5 5.6.0
 _ZN10Qt3DRender18QRayCastingService11fetchResultERKi@Qt_5 5.6.0
 _ZN10Qt3DRender18QRayCastingService5queryERKN8Qt3DCore6QRay3DENS_30QAbstractCollisionQueryService9QueryModeEPNS_23QBoundingVolumeProviderE@Qt_5 5.6.0
 _ZN10Qt3DRender18QRayCastingServiceC1Ev@Qt_5 5.6.0
 _ZN10Qt3DRender18QRayCastingServiceC2Ev@Qt_5 5.6.0
 _ZN10Qt3DRender18QSceneParserPlugin11qt_metacallEN11QMetaObject4CallEiPPv@Qt_5 5.6.0
 _ZN10Qt3DRender18QSceneParserPlugin11qt_metacastEPKc@Qt_5 5.6.0
 _ZN10Qt3DRender18QSceneParserPlugin16staticMetaObjectE@Qt_5 5.6.0
 _ZN10Qt3DRender18QSceneParserPlugin6createERK7QStringRK11QStringList@Qt_5 5.6.0
 _ZN10Qt3DRender18QSceneParserPluginC1EP7QObject@Qt_5 5.6.0
 _ZN10Qt3DRender18QSceneParserPluginC2EP7QObject@Qt_5 5.6.0
 _ZN10Qt3DRender18QSceneParserPluginD0Ev@Qt_5 5.6.0
 _ZN10Qt3DRender18QSceneParserPluginD1Ev@Qt_5 5.6.0
 _ZN10Qt3DRender18QSceneParserPluginD2Ev@Qt_5 5.6.0
 _ZN10Qt3DRender18QShaderDataPrivateC1E14QSharedPointerINS_23PropertyReaderInterfaceEE@Qt_5 5.6.0
 _ZN10Qt3DRender18QShaderDataPrivateC1Ev@Qt_5 5.6.0
 _ZN10Qt3DRender18QShaderDataPrivateC2E14QSharedPointerINS_23PropertyReaderInterfaceEE@Qt_5 5.6.0
 _ZN10Qt3DRender18QShaderDataPrivateC2Ev@Qt_5 5.6.0
 _ZN10Qt3DRender18QStencilOpSeparate11qt_metacallEN11QMetaObject4CallEiPPv@Qt_5 5.6.0
 _ZN10Qt3DRender18QStencilOpSeparate11qt_metacastEPKc@Qt_5 5.6.0
 _ZN10Qt3DRender18QStencilOpSeparate12setDepthFailENS0_9StencilOpE@Qt_5_PRIVATE_API 5.6.0
 _ZN10Qt3DRender18QStencilOpSeparate14setStencilFailENS0_9StencilOpE@Qt_5_PRIVATE_API 5.6.0
 _ZN10Qt3DRender18QStencilOpSeparate15faceModeChangedENS0_15StencilFaceModeE@Qt_5 5.6.0
 _ZN10Qt3DRender18QStencilOpSeparate16depthFailChangedENS0_9StencilOpE@Qt_5_PRIVATE_API 5.6.0
 _ZN10Qt3DRender18QStencilOpSeparate16staticMetaObjectE@Qt_5 5.6.0
 _ZN10Qt3DRender18QStencilOpSeparate18stencilFailChangedENS0_9StencilOpE@Qt_5_PRIVATE_API 5.6.0
 _ZN10Qt3DRender18QStencilOpSeparate19setStencilDepthPassENS0_9StencilOpE@Qt_5_PRIVATE_API 5.6.0
 _ZN10Qt3DRender18QStencilOpSeparate23stencilDepthPassChangedENS0_9StencilOpE@Qt_5_PRIVATE_API 5.6.0
 _ZN10Qt3DRender18QStencilOpSeparateC1ENS0_15StencilFaceModeEP7QObject@Qt_5 5.6.0
 _ZN10Qt3DRender18QStencilOpSeparateC2ENS0_15StencilFaceModeEP7QObject@Qt_5 5.6.0
 _ZN10Qt3DRender18QStencilOpSeparateD0Ev@Qt_5 5.6.0
 _ZN10Qt3DRender18QStencilOpSeparateD1Ev@Qt_5 5.6.0
 _ZN10Qt3DRender18QStencilOpSeparateD2Ev@Qt_5 5.6.0
 _ZN10Qt3DRender19QBlendStateSeparate11qt_metacallEN11QMetaObject4CallEiPPv@Qt_5 5.6.0
 _ZN10Qt3DRender19QBlendStateSeparate11qt_metacastEPKc@Qt_5 5.6.0
 _ZN10Qt3DRender19QBlendStateSeparate16staticMetaObjectE@Qt_5 5.6.0
 _ZN10Qt3DRender19QBlendStateSeparateC1EPN8Qt3DCore5QNodeE@Qt_5 5.6.0
 _ZN10Qt3DRender19QBlendStateSeparateC2EPN8Qt3DCore5QNodeE@Qt_5 5.6.0
 _ZN10Qt3DRender19QDiffuseMapMaterial10setAmbientERK6QColor@Qt_5 5.6.0
 _ZN10Qt3DRender19QDiffuseMapMaterial10setDiffuseEPNS_24QAbstractTextureProviderE@Qt_5 5.6.0
 _ZN10Qt3DRender19QDiffuseMapMaterial11qt_metacallEN11QMetaObject4CallEiPPv@Qt_5 5.6.0
 _ZN10Qt3DRender19QDiffuseMapMaterial11qt_metacastEPKc@Qt_5 5.6.0
 _ZN10Qt3DRender19QDiffuseMapMaterial11setSpecularERK6QColor@Qt_5 5.6.0
 _ZN10Qt3DRender19QDiffuseMapMaterial12setShininessEf@Qt_5 5.6.0
 _ZN10Qt3DRender19QDiffuseMapMaterial14ambientChangedERK6QColor@Qt_5 5.6.0
 _ZN10Qt3DRender19QDiffuseMapMaterial14diffuseChangedEPNS_24QAbstractTextureProviderE@Qt_5 5.6.0
 _ZN10Qt3DRender19QDiffuseMapMaterial15setTextureScaleEf@Qt_5 5.6.0
 _ZN10Qt3DRender19QDiffuseMapMaterial15specularChangedERK6QColor@Qt_5 5.6.0
 _ZN10Qt3DRender19QDiffuseMapMaterial16shininessChangedEf@Qt_5 5.6.0
 _ZN10Qt3DRender19QDiffuseMapMaterial16staticMetaObjectE@Qt_5 5.6.0
 _ZN10Qt3DRender19QDiffuseMapMaterial19textureScaleChangedEf@Qt_5 5.6.0
 _ZN10Qt3DRender19QDiffuseMapMaterialC1EPN8Qt3DCore5QNodeE@Qt_5 5.6.0
 _ZN10Qt3DRender19QDiffuseMapMaterialC2EPN8Qt3DCore5QNodeE@Qt_5 5.6.0
 _ZN10Qt3DRender19QDiffuseMapMaterialD0Ev@Qt_5 5.6.0
 _ZN10Qt3DRender19QDiffuseMapMaterialD1Ev@Qt_5 5.6.0
 _ZN10Qt3DRender19QDiffuseMapMaterialD2Ev@Qt_5 5.6.0
 _ZN10Qt3DRender19QFrameGraphSelector11qt_metacallEN11QMetaObject4CallEiPPv@Qt_5 5.6.0
 _ZN10Qt3DRender19QFrameGraphSelector11qt_metacastEPKc@Qt_5 5.6.0
 _ZN10Qt3DRender19QFrameGraphSelector16staticMetaObjectE@Qt_5 5.6.0
 _ZN10Qt3DRender19QFrameGraphSelector19setSelectionFunctorE14QSharedPointerINS_26QFrameGraphSelectorFunctorEE@Qt_5 5.6.0
 _ZN10Qt3DRender19QFrameGraphSelector4copyEPKN8Qt3DCore5QNodeE@Qt_5 5.6.0
 _ZN10Qt3DRender19QFrameGraphSelectorC1EPN8Qt3DCore5QNodeE@Qt_5 5.6.0
 _ZN10Qt3DRender19QFrameGraphSelectorC2EPN8Qt3DCore5QNodeE@Qt_5 5.6.0
 _ZN10Qt3DRender19QFrameGraphSelectorD0Ev@Qt_5 5.6.0
 _ZN10Qt3DRender19QFrameGraphSelectorD1Ev@Qt_5 5.6.0
 _ZN10Qt3DRender19QFrameGraphSelectorD2Ev@Qt_5 5.6.0
 _ZN10Qt3DRender19QPhongAlphaMaterial10setAmbientERK6QColor@Qt_5 5.6.0
 _ZN10Qt3DRender19QPhongAlphaMaterial10setDiffuseERK6QColor@Qt_5 5.6.0
 _ZN10Qt3DRender19QPhongAlphaMaterial11qt_metacallEN11QMetaObject4CallEiPPv@Qt_5 5.6.0
 _ZN10Qt3DRender19QPhongAlphaMaterial11qt_metacastEPKc@Qt_5 5.6.0
 _ZN10Qt3DRender19QPhongAlphaMaterial11setSpecularERK6QColor@Qt_5 5.6.0
 _ZN10Qt3DRender19QPhongAlphaMaterial12alphaChangedEf@Qt_5 5.6.0
 _ZN10Qt3DRender19QPhongAlphaMaterial12setShininessEf@Qt_5 5.6.0
 _ZN10Qt3DRender19QPhongAlphaMaterial14ambientChangedERK6QColor@Qt_5 5.6.0
 _ZN10Qt3DRender19QPhongAlphaMaterial14diffuseChangedERK6QColor@Qt_5 5.6.0
 _ZN10Qt3DRender19QPhongAlphaMaterial15specularChangedERK6QColor@Qt_5 5.6.0
 _ZN10Qt3DRender19QPhongAlphaMaterial16shininessChangedEf@Qt_5 5.6.0
 _ZN10Qt3DRender19QPhongAlphaMaterial16staticMetaObjectE@Qt_5 5.6.0
 _ZN10Qt3DRender19QPhongAlphaMaterial8setAlphaEf@Qt_5 5.6.0
 _ZN10Qt3DRender19QPhongAlphaMaterialC1EPN8Qt3DCore5QNodeE@Qt_5 5.6.0
 _ZN10Qt3DRender19QPhongAlphaMaterialC2EPN8Qt3DCore5QNodeE@Qt_5 5.6.0
 _ZN10Qt3DRender19QPhongAlphaMaterialD0Ev@Qt_5 5.6.0
 _ZN10Qt3DRender19QPhongAlphaMaterialD1Ev@Qt_5 5.6.0
 _ZN10Qt3DRender19QPhongAlphaMaterialD2Ev@Qt_5 5.6.0
 _ZN10Qt3DRender19QRenderStatePrivateC1ENS_12QRenderState4TypeE@Qt_5 5.6.0
 _ZN10Qt3DRender19QRenderStatePrivateC2ENS_12QRenderState4TypeE@Qt_5 5.6.0
 _ZN10Qt3DRender19QSceneParserFactory4keysERK7QString@Qt_5 5.6.0
 _ZN10Qt3DRender19QSceneParserFactory6createERK7QStringRK11QStringListS3_@Qt_5 5.6.0
 _ZN10Qt3DRender20QAbstractSceneLoader11qt_metacallEN11QMetaObject4CallEiPPv@Qt_5 5.6.0
 _ZN10Qt3DRender20QAbstractSceneLoader11qt_metacastEPKc@Qt_5 5.6.0
 _ZN10Qt3DRender20QAbstractSceneLoader13sourceChangedERK4QUrl@Qt_5 5.6.0
 _ZN10Qt3DRender20QAbstractSceneLoader13statusChangedENS0_6StatusE@Qt_5 5.6.0
 _ZN10Qt3DRender20QAbstractSceneLoader16staticMetaObjectE@Qt_5 5.6.0
 _ZN10Qt3DRender20QAbstractSceneLoader4copyEPKN8Qt3DCore5QNodeE@Qt_5 5.6.0
 _ZN10Qt3DRender20QAbstractSceneLoader9setSourceERK4QUrl@Qt_5 5.6.0
 _ZN10Qt3DRender20QAbstractSceneLoader9setStatusENS0_6StatusE@Qt_5 5.6.0
 _ZN10Qt3DRender20QAbstractSceneLoaderC1EPN8Qt3DCore5QNodeE@Qt_5 5.6.0
 _ZN10Qt3DRender20QAbstractSceneLoaderC1ERNS_27QAbstractSceneLoaderPrivateEPN8Qt3DCore5QNodeE@Qt_5 5.6.0
 _ZN10Qt3DRender20QAbstractSceneLoaderC2EPN8Qt3DCore5QNodeE@Qt_5 5.6.0
 _ZN10Qt3DRender20QAbstractSceneLoaderC2ERNS_27QAbstractSceneLoaderPrivateEPN8Qt3DCore5QNodeE@Qt_5 5.6.0
 _ZN10Qt3DRender20QAbstractSceneLoaderD0Ev@Qt_5 5.6.0
 _ZN10Qt3DRender20QAbstractSceneLoaderD1Ev@Qt_5 5.6.0
 _ZN10Qt3DRender20QAbstractSceneLoaderD2Ev@Qt_5 5.6.0
 _ZN10Qt3DRender20QAbstractSceneParser11qt_metacallEN11QMetaObject4CallEiPPv@Qt_5 5.6.0
 _ZN10Qt3DRender20QAbstractSceneParser11qt_metacastEPKc@Qt_5 5.6.0
 _ZN10Qt3DRender20QAbstractSceneParser13errorsChangedERK11QStringList@Qt_5 5.6.0
 _ZN10Qt3DRender20QAbstractSceneParser15setParserStatusENS0_12ParserStatusE@Qt_5 5.6.0
 _ZN10Qt3DRender20QAbstractSceneParser16staticMetaObjectE@Qt_5 5.6.0
 _ZN10Qt3DRender20QAbstractSceneParser19parserStatusChangedENS0_12ParserStatusE@Qt_5 5.6.0
 _ZN10Qt3DRender20QAbstractSceneParser7logInfoERK7QString@Qt_5 5.6.0
 _ZN10Qt3DRender20QAbstractSceneParser8logErrorERK7QString@Qt_5 5.6.0
 _ZN10Qt3DRender20QAbstractSceneParserC1Ev@Qt_5 5.6.0
 _ZN10Qt3DRender20QAbstractSceneParserC2Ev@Qt_5 5.6.0
 _ZN10Qt3DRender20QAbstractSceneParserD0Ev@Qt_5 5.6.0
 _ZN10Qt3DRender20QAbstractSceneParserD1Ev@Qt_5 5.6.0
 _ZN10Qt3DRender20QAbstractSceneParserD2Ev@Qt_5 5.6.0
 _ZN10Qt3DRender20QBoundingVolumeDebug11qt_metacallEN11QMetaObject4CallEiPPv@Qt_5 5.6.0
 _ZN10Qt3DRender20QBoundingVolumeDebug11qt_metacastEPKc@Qt_5 5.6.0
 _ZN10Qt3DRender20QBoundingVolumeDebug12setRecursiveEb@Qt_5 5.6.0
 _ZN10Qt3DRender20QBoundingVolumeDebug16recursiveChangedEb@Qt_5 5.6.0
 _ZN10Qt3DRender20QBoundingVolumeDebug16sceneChangeEventERK14QSharedPointerIN8Qt3DCore12QSceneChangeEE@Qt_5 5.6.0
 _ZN10Qt3DRender20QBoundingVolumeDebug16staticMetaObjectE@Qt_5 5.6.0
 _ZN10Qt3DRender20QBoundingVolumeDebug4copyEPKN8Qt3DCore5QNodeE@Qt_5 5.6.0
 _ZN10Qt3DRender20QBoundingVolumeDebugC1EPN8Qt3DCore5QNodeE@Qt_5 5.6.0
 _ZN10Qt3DRender20QBoundingVolumeDebugC2EPN8Qt3DCore5QNodeE@Qt_5 5.6.0
 _ZN10Qt3DRender20QBoundingVolumeDebugD0Ev@Qt_5 5.6.0
 _ZN10Qt3DRender20QBoundingVolumeDebugD1Ev@Qt_5 5.6.0
 _ZN10Qt3DRender20QBoundingVolumeDebugD2Ev@Qt_5 5.6.0
 _ZN10Qt3DRender20QStencilTestSeparate10refChangedEi@Qt_5 5.6.0
 _ZN10Qt3DRender20QStencilTestSeparate11funcChangedENS0_11StencilFuncE@Qt_5 5.6.0
 _ZN10Qt3DRender20QStencilTestSeparate11maskChangedEj@Qt_5 5.6.0
 _ZN10Qt3DRender20QStencilTestSeparate11qt_metacallEN11QMetaObject4CallEiPPv@Qt_5 5.6.0
 _ZN10Qt3DRender20QStencilTestSeparate11qt_metacastEPKc@Qt_5 5.6.0
 _ZN10Qt3DRender20QStencilTestSeparate15faceModeChangedENS0_15StencilFaceModeE@Qt_5 5.6.0
 _ZN10Qt3DRender20QStencilTestSeparate16staticMetaObjectE@Qt_5 5.6.0
 _ZN10Qt3DRender20QStencilTestSeparate6setRefEi@Qt_5 5.6.0
 _ZN10Qt3DRender20QStencilTestSeparate7setFuncENS0_11StencilFuncE@Qt_5 5.6.0
 _ZN10Qt3DRender20QStencilTestSeparate7setMaskEj@Qt_5 5.6.0
 _ZN10Qt3DRender20QStencilTestSeparateC1ENS0_15StencilFaceModeEP7QObject@Qt_5 5.6.0
 _ZN10Qt3DRender20QStencilTestSeparateC2ENS0_15StencilFaceModeEP7QObject@Qt_5 5.6.0
 _ZN10Qt3DRender20QStencilTestSeparateD0Ev@Qt_5 5.6.0
 _ZN10Qt3DRender20QStencilTestSeparateD1Ev@Qt_5 5.6.0
 _ZN10Qt3DRender20QStencilTestSeparateD2Ev@Qt_5 5.6.0
 _ZN10Qt3DRender20QTextureCubeMapArray11qt_metacallEN11QMetaObject4CallEiPPv@Qt_5 5.6.0
 _ZN10Qt3DRender20QTextureCubeMapArray11qt_metacastEPKc@Qt_5 5.6.0
 _ZN10Qt3DRender20QTextureCubeMapArray16staticMetaObjectE@Qt_5 5.6.0
 _ZN10Qt3DRender20QTextureCubeMapArrayC1EPN8Qt3DCore5QNodeE@Qt_5 5.6.0
 _ZN10Qt3DRender20QTextureCubeMapArrayC2EPN8Qt3DCore5QNodeE@Qt_5 5.6.0
 _ZN10Qt3DRender20QTextureCubeMapArrayD0Ev@Qt_5 5.6.0
 _ZN10Qt3DRender20QTextureCubeMapArrayD1Ev@Qt_5 5.6.0
 _ZN10Qt3DRender20QTextureCubeMapArrayD2Ev@Qt_5 5.6.0
 _ZN10Qt3DRender21QAbstractTextureImage11qt_metacallEN11QMetaObject4CallEiPPv@Qt_5 5.6.0
 _ZN10Qt3DRender21QAbstractTextureImage11qt_metacastEPKc@Qt_5 5.6.0
 _ZN10Qt3DRender21QAbstractTextureImage12layerChangedEi@Qt_5 5.6.0
 _ZN10Qt3DRender21QAbstractTextureImage14setCubeMapFaceENS_24QAbstractTextureProvider11CubeMapFaceE@Qt_5 5.6.0
 _ZN10Qt3DRender21QAbstractTextureImage14setMipmapLevelEi@Qt_5 5.6.0
 _ZN10Qt3DRender21QAbstractTextureImage16staticMetaObjectE@Qt_5 5.6.0
 _ZN10Qt3DRender21QAbstractTextureImage18cubeMapFaceChangedENS_24QAbstractTextureProvider11CubeMapFaceE@Qt_5 5.6.0
 _ZN10Qt3DRender21QAbstractTextureImage18mipmapLevelChangedEi@Qt_5 5.6.0
 _ZN10Qt3DRender21QAbstractTextureImage4copyEPKN8Qt3DCore5QNodeE@Qt_5 5.6.0
 _ZN10Qt3DRender21QAbstractTextureImage6updateEv@Qt_5 5.6.0
 _ZN10Qt3DRender21QAbstractTextureImage8setLayerEi@Qt_5 5.6.0
 _ZN10Qt3DRender21QAbstractTextureImageC1EPN8Qt3DCore5QNodeE@Qt_5 5.6.0
 _ZN10Qt3DRender21QAbstractTextureImageC1ERNS_28QAbstractTextureImagePrivateEPN8Qt3DCore5QNodeE@Qt_5 5.6.0
 _ZN10Qt3DRender21QAbstractTextureImageC2EPN8Qt3DCore5QNodeE@Qt_5 5.6.0
 _ZN10Qt3DRender21QAbstractTextureImageC2ERNS_28QAbstractTextureImagePrivateEPN8Qt3DCore5QNodeE@Qt_5 5.6.0
 _ZN10Qt3DRender21QAbstractTextureImageD0Ev@Qt_5 5.6.0
 _ZN10Qt3DRender21QAbstractTextureImageD1Ev@Qt_5 5.6.0
 _ZN10Qt3DRender21QAbstractTextureImageD2Ev@Qt_5 5.6.0
 _ZN10Qt3DRender21QCollisionQueryResult6d_funcEv@Qt_5 5.6.0
 _ZN10Qt3DRender21QCollisionQueryResultC1ERKS0_@Qt_5 5.6.0
 _ZN10Qt3DRender21QCollisionQueryResultC1ERNS_28QCollisionQueryResultPrivateE@Qt_5 5.6.0
 _ZN10Qt3DRender21QCollisionQueryResultC1Ev@Qt_5 5.6.0
 _ZN10Qt3DRender21QCollisionQueryResultC2ERKS0_@Qt_5 5.6.0
 _ZN10Qt3DRender21QCollisionQueryResultC2ERNS_28QCollisionQueryResultPrivateE@Qt_5 5.6.0
 _ZN10Qt3DRender21QCollisionQueryResultC2Ev@Qt_5 5.6.0
 _ZN10Qt3DRender21QCollisionQueryResultD1Ev@Qt_5 5.6.0
 _ZN10Qt3DRender21QCollisionQueryResultD2Ev@Qt_5 5.6.0
 _ZN10Qt3DRender21QCollisionQueryResultaSERKS0_@Qt_5 5.6.0
 _ZN10Qt3DRender21QRenderTargetSelector11qt_metacallEN11QMetaObject4CallEiPPv@Qt_5 5.6.0
 _ZN10Qt3DRender21QRenderTargetSelector11qt_metacastEPKc@Qt_5 5.6.0
 _ZN10Qt3DRender21QRenderTargetSelector13targetChangedEPNS_13QRenderTargetE@Qt_5 5.6.0
 _ZN10Qt3DRender21QRenderTargetSelector14setDrawBuffersERK5QListINS_17QRenderAttachment20RenderAttachmentTypeEE@Qt_5 5.6.0
 _ZN10Qt3DRender21QRenderTargetSelector16staticMetaObjectE@Qt_5 5.6.0
 _ZN10Qt3DRender21QRenderTargetSelector4copyEPKN8Qt3DCore5QNodeE@Qt_5 5.6.0
 _ZN10Qt3DRender21QRenderTargetSelector9setTargetEPNS_13QRenderTargetE@Qt_5 5.6.0
 _ZN10Qt3DRender21QRenderTargetSelectorC1EPN8Qt3DCore5QNodeE@Qt_5 5.6.0
 _ZN10Qt3DRender21QRenderTargetSelectorC1ERNS_28QRenderTargetSelectorPrivateEPN8Qt3DCore5QNodeE@Qt_5 5.6.0
 _ZN10Qt3DRender21QRenderTargetSelectorC2EPN8Qt3DCore5QNodeE@Qt_5 5.6.0
 _ZN10Qt3DRender21QRenderTargetSelectorC2ERNS_28QRenderTargetSelectorPrivateEPN8Qt3DCore5QNodeE@Qt_5 5.6.0
 _ZN10Qt3DRender21QRenderTargetSelectorD0Ev@Qt_5 5.6.0
 _ZN10Qt3DRender21QRenderTargetSelectorD1Ev@Qt_5 5.6.0
 _ZN10Qt3DRender21QRenderTargetSelectorD2Ev@Qt_5 5.6.0
 _ZN10Qt3DRender21QTexture2DMultisample11qt_metacallEN11QMetaObject4CallEiPPv@Qt_5 5.6.0
 _ZN10Qt3DRender21QTexture2DMultisample11qt_metacastEPKc@Qt_5 5.6.0
 _ZN10Qt3DRender21QTexture2DMultisample16staticMetaObjectE@Qt_5 5.6.0
 _ZN10Qt3DRender21QTexture2DMultisampleC1EPN8Qt3DCore5QNodeE@Qt_5 5.6.0
 _ZN10Qt3DRender21QTexture2DMultisampleC2EPN8Qt3DCore5QNodeE@Qt_5 5.6.0
 _ZN10Qt3DRender21QTexture2DMultisampleD0Ev@Qt_5 5.6.0
 _ZN10Qt3DRender21QTexture2DMultisampleD1Ev@Qt_5 5.6.0
 _ZN10Qt3DRender21QTexture2DMultisampleD2Ev@Qt_5 5.6.0
 _ZN10Qt3DRender22QAbstractBufferPrivateC1Ev@Qt_5 5.6.0
 _ZN10Qt3DRender22QAbstractBufferPrivateC2Ev@Qt_5 5.6.0
 _ZN10Qt3DRender23QBoundingVolumeProviderD0Ev@Qt_5 5.6.0
 _ZN10Qt3DRender23QBoundingVolumeProviderD1Ev@Qt_5 5.6.0
 _ZN10Qt3DRender23QBoundingVolumeProviderD2Ev@Qt_5 5.6.0
 _ZN10Qt3DRender23QPerVertexColorMaterial11qt_metacallEN11QMetaObject4CallEiPPv@Qt_5 5.6.0
 _ZN10Qt3DRender23QPerVertexColorMaterial11qt_metacastEPKc@Qt_5 5.6.0
 _ZN10Qt3DRender23QPerVertexColorMaterial16staticMetaObjectE@Qt_5 5.6.0
 _ZN10Qt3DRender23QPerVertexColorMaterialC1EPN8Qt3DCore5QNodeE@Qt_5 5.6.0
 _ZN10Qt3DRender23QPerVertexColorMaterialC2EPN8Qt3DCore5QNodeE@Qt_5 5.6.0
 _ZN10Qt3DRender23QPerVertexColorMaterialD0Ev@Qt_5 5.6.0
 _ZN10Qt3DRender23QPerVertexColorMaterialD1Ev@Qt_5 5.6.0
 _ZN10Qt3DRender23QPerVertexColorMaterialD2Ev@Qt_5 5.6.0
 _ZN10Qt3DRender24QAbstractTextureProvider11qt_metacallEN11QMetaObject4CallEiPPv@Qt_5 5.6.0
 _ZN10Qt3DRender24QAbstractTextureProvider11qt_metacastEPKc@Qt_5 5.6.0
 _ZN10Qt3DRender24QAbstractTextureProvider11setWrapModeERKNS_16QTextureWrapModeE@Qt_5 5.6.0
 _ZN10Qt3DRender24QAbstractTextureProvider12depthChangedEi@Qt_5 5.6.0
 _ZN10Qt3DRender24QAbstractTextureProvider12widthChangedEi@Qt_5 5.6.0
 _ZN10Qt3DRender24QAbstractTextureProvider13formatChangedENS0_13TextureFormatE@Qt_5 5.6.0
 _ZN10Qt3DRender24QAbstractTextureProvider13heightChangedEi@Qt_5 5.6.0
 _ZN10Qt3DRender24QAbstractTextureProvider13statusChangedENS0_6StatusE@Qt_5 5.6.0
 _ZN10Qt3DRender24QAbstractTextureProvider13uniqueChangedEb@Qt_5 5.6.0
 _ZN10Qt3DRender24QAbstractTextureProvider15addTextureImageEPNS_21QAbstractTextureImageE@Qt_5 5.6.0
 _ZN10Qt3DRender24QAbstractTextureProvider16setMaximumLayersEi@Qt_5 5.6.0
 _ZN10Qt3DRender24QAbstractTextureProvider16staticMetaObjectE@Qt_5 5.6.0
 _ZN10Qt3DRender24QAbstractTextureProvider17setComparisonModeENS0_14ComparisonModeE@Qt_5 5.6.0
 _ZN10Qt3DRender24QAbstractTextureProvider18removeTextureImageEPNS_21QAbstractTextureImageE@Qt_5 5.6.0
 _ZN10Qt3DRender24QAbstractTextureProvider18setGenerateMipMapsEb@Qt_5 5.6.0
 _ZN10Qt3DRender24QAbstractTextureProvider20maximumLayersChangedEi@Qt_5 5.6.0
 _ZN10Qt3DRender24QAbstractTextureProvider20setMaximumAnisotropyEf@Qt_5 5.6.0
 _ZN10Qt3DRender24QAbstractTextureProvider21comparisonModeChangedENS0_14ComparisonModeE@Qt_5 5.6.0
 _ZN10Qt3DRender24QAbstractTextureProvider21setComparisonFunctionENS0_18ComparisonFunctionE@Qt_5 5.6.0
 _ZN10Qt3DRender24QAbstractTextureProvider21setMinificationFilterENS0_6FilterE@Qt_5 5.6.0
 _ZN10Qt3DRender24QAbstractTextureProvider22generateMipMapsChangedEb@Qt_5 5.6.0
 _ZN10Qt3DRender24QAbstractTextureProvider22setMagnificationFilterENS0_6FilterE@Qt_5 5.6.0
 _ZN10Qt3DRender24QAbstractTextureProvider24maximumAnisotropyChangedEf@Qt_5 5.6.0
 _ZN10Qt3DRender24QAbstractTextureProvider25comparisonFunctionChangedENS0_18ComparisonFunctionE@Qt_5 5.6.0
 _ZN10Qt3DRender24QAbstractTextureProvider25minificationFilterChangedENS0_6FilterE@Qt_5 5.6.0
 _ZN10Qt3DRender24QAbstractTextureProvider26magnificationFilterChangedENS0_6FilterE@Qt_5 5.6.0
 _ZN10Qt3DRender24QAbstractTextureProvider4copyEPKN8Qt3DCore5QNodeE@Qt_5 5.6.0
 _ZN10Qt3DRender24QAbstractTextureProvider7setSizeEiii@Qt_5 5.6.0
 _ZN10Qt3DRender24QAbstractTextureProvider8setDepthEi@Qt_5 5.6.0
 _ZN10Qt3DRender24QAbstractTextureProvider8setWidthEi@Qt_5 5.6.0
 _ZN10Qt3DRender24QAbstractTextureProvider8wrapModeEv@Qt_5 5.6.0
 _ZN10Qt3DRender24QAbstractTextureProvider9setFormatENS0_13TextureFormatE@Qt_5 5.6.0
 _ZN10Qt3DRender24QAbstractTextureProvider9setHeightEi@Qt_5 5.6.0
 _ZN10Qt3DRender24QAbstractTextureProvider9setStatusENS0_6StatusE@Qt_5 5.6.0
 _ZN10Qt3DRender24QAbstractTextureProvider9setUniqueEb@Qt_5 5.6.0
 _ZN10Qt3DRender24QAbstractTextureProviderC1ENS0_6TargetEPN8Qt3DCore5QNodeE@Qt_5 5.6.0
 _ZN10Qt3DRender24QAbstractTextureProviderC1EPN8Qt3DCore5QNodeE@Qt_5 5.6.0
 _ZN10Qt3DRender24QAbstractTextureProviderC1ERNS_31QAbstractTextureProviderPrivateEPN8Qt3DCore5QNodeE@Qt_5 5.6.0
 _ZN10Qt3DRender24QAbstractTextureProviderC2ENS0_6TargetEPN8Qt3DCore5QNodeE@Qt_5 5.6.0
 _ZN10Qt3DRender24QAbstractTextureProviderC2EPN8Qt3DCore5QNodeE@Qt_5 5.6.0
 _ZN10Qt3DRender24QAbstractTextureProviderC2ERNS_31QAbstractTextureProviderPrivateEPN8Qt3DCore5QNodeE@Qt_5 5.6.0
 _ZN10Qt3DRender24QAbstractTextureProviderD0Ev@Qt_5 5.6.0
 _ZN10Qt3DRender24QAbstractTextureProviderD1Ev@Qt_5 5.6.0
 _ZN10Qt3DRender24QAbstractTextureProviderD2Ev@Qt_5 5.6.0
 _ZN10Qt3DRender24QBoundingVolumeSpecifier11qt_metacallEN11QMetaObject4CallEiPPv@Qt_5 5.6.0
 _ZN10Qt3DRender24QBoundingVolumeSpecifier11qt_metacastEPKc@Qt_5 5.6.0
 _ZN10Qt3DRender24QBoundingVolumeSpecifier16staticMetaObjectE@Qt_5 5.6.0
 _ZN10Qt3DRender24QBoundingVolumeSpecifier20setPositionAttributeEPNS_18QAbstractAttributeE@Qt_5 5.6.0
 _ZN10Qt3DRender24QBoundingVolumeSpecifier24positionAttributeChangedEPNS_18QAbstractAttributeE@Qt_5 5.6.0
 _ZN10Qt3DRender24QBoundingVolumeSpecifierC1EP7QObject@Qt_5 5.6.0
 _ZN10Qt3DRender24QBoundingVolumeSpecifierC2EP7QObject@Qt_5 5.6.0
 _ZN10Qt3DRender25QAbstractAttributePrivateC1Ev@Qt_5 5.6.0
 _ZN10Qt3DRender25QAbstractAttributePrivateC2Ev@Qt_5 5.6.0
 _ZN10Qt3DRender25QNormalDiffuseMapMaterial10setAmbientERK6QColor@Qt_5 5.6.0
 _ZN10Qt3DRender25QNormalDiffuseMapMaterial10setDiffuseEPNS_24QAbstractTextureProviderE@Qt_5 5.6.0
 _ZN10Qt3DRender25QNormalDiffuseMapMaterial11qt_metacallEN11QMetaObject4CallEiPPv@Qt_5 5.6.0
 _ZN10Qt3DRender25QNormalDiffuseMapMaterial11qt_metacastEPKc@Qt_5 5.6.0
 _ZN10Qt3DRender25QNormalDiffuseMapMaterial11setSpecularERK6QColor@Qt_5 5.6.0
 _ZN10Qt3DRender25QNormalDiffuseMapMaterial12setShininessEf@Qt_5 5.6.0
 _ZN10Qt3DRender25QNormalDiffuseMapMaterial13normalChangedEPNS_24QAbstractTextureProviderE@Qt_5 5.6.0
 _ZN10Qt3DRender25QNormalDiffuseMapMaterial14ambientChangedERK6QColor@Qt_5 5.6.0
 _ZN10Qt3DRender25QNormalDiffuseMapMaterial14diffuseChangedEPNS_24QAbstractTextureProviderE@Qt_5 5.6.0
 _ZN10Qt3DRender25QNormalDiffuseMapMaterial15setTextureScaleEf@Qt_5 5.6.0
 _ZN10Qt3DRender25QNormalDiffuseMapMaterial15specularChangedERK6QColor@Qt_5 5.6.0
 _ZN10Qt3DRender25QNormalDiffuseMapMaterial16shininessChangedEf@Qt_5 5.6.0
 _ZN10Qt3DRender25QNormalDiffuseMapMaterial16staticMetaObjectE@Qt_5 5.6.0
 _ZN10Qt3DRender25QNormalDiffuseMapMaterial19textureScaleChangedEf@Qt_5 5.6.0
 _ZN10Qt3DRender25QNormalDiffuseMapMaterial9setNormalEPNS_24QAbstractTextureProviderE@Qt_5 5.6.0
 _ZN10Qt3DRender25QNormalDiffuseMapMaterialC1EPN8Qt3DCore5QNodeE@Qt_5 5.6.0
 _ZN10Qt3DRender25QNormalDiffuseMapMaterialC1ERNS_32QNormalDiffuseMapMaterialPrivateEPN8Qt3DCore5QNodeE@Qt_5 5.6.0
 _ZN10Qt3DRender25QNormalDiffuseMapMaterialC2EPN8Qt3DCore5QNodeE@Qt_5 5.6.0
 _ZN10Qt3DRender25QNormalDiffuseMapMaterialC2ERNS_32QNormalDiffuseMapMaterialPrivateEPN8Qt3DCore5QNodeE@Qt_5 5.6.0
 _ZN10Qt3DRender25QNormalDiffuseMapMaterialD0Ev@Qt_5 5.6.0
 _ZN10Qt3DRender25QNormalDiffuseMapMaterialD1Ev@Qt_5 5.6.0
 _ZN10Qt3DRender25QNormalDiffuseMapMaterialD2Ev@Qt_5 5.6.0
 _ZN10Qt3DRender26QTexture2DMultisampleArray11qt_metacallEN11QMetaObject4CallEiPPv@Qt_5 5.6.0
 _ZN10Qt3DRender26QTexture2DMultisampleArray11qt_metacastEPKc@Qt_5 5.6.0
 _ZN10Qt3DRender26QTexture2DMultisampleArray16staticMetaObjectE@Qt_5 5.6.0
 _ZN10Qt3DRender26QTexture2DMultisampleArrayC1EPN8Qt3DCore5QNodeE@Qt_5 5.6.0
 _ZN10Qt3DRender26QTexture2DMultisampleArrayC2EPN8Qt3DCore5QNodeE@Qt_5 5.6.0
 _ZN10Qt3DRender26QTexture2DMultisampleArrayD0Ev@Qt_5 5.6.0
 _ZN10Qt3DRender26QTexture2DMultisampleArrayD1Ev@Qt_5 5.6.0
 _ZN10Qt3DRender26QTexture2DMultisampleArrayD2Ev@Qt_5 5.6.0
 _ZN10Qt3DRender27QDiffuseSpecularMapMaterial10setAmbientERK6QColor@Qt_5 5.6.0
 _ZN10Qt3DRender27QDiffuseSpecularMapMaterial10setDiffuseEPNS_24QAbstractTextureProviderE@Qt_5 5.6.0
 _ZN10Qt3DRender27QDiffuseSpecularMapMaterial11qt_metacallEN11QMetaObject4CallEiPPv@Qt_5 5.6.0
 _ZN10Qt3DRender27QDiffuseSpecularMapMaterial11qt_metacastEPKc@Qt_5 5.6.0
 _ZN10Qt3DRender27QDiffuseSpecularMapMaterial11setSpecularEPNS_24QAbstractTextureProviderE@Qt_5 5.6.0
 _ZN10Qt3DRender27QDiffuseSpecularMapMaterial12setShininessEf@Qt_5 5.6.0
 _ZN10Qt3DRender27QDiffuseSpecularMapMaterial14ambientChangedERK6QColor@Qt_5 5.6.0
 _ZN10Qt3DRender27QDiffuseSpecularMapMaterial14diffuseChangedEPNS_24QAbstractTextureProviderE@Qt_5 5.6.0
 _ZN10Qt3DRender27QDiffuseSpecularMapMaterial15setTextureScaleEf@Qt_5 5.6.0
 _ZN10Qt3DRender27QDiffuseSpecularMapMaterial15specularChangedEPNS_24QAbstractTextureProviderE@Qt_5 5.6.0
 _ZN10Qt3DRender27QDiffuseSpecularMapMaterial16shininessChangedEf@Qt_5 5.6.0
 _ZN10Qt3DRender27QDiffuseSpecularMapMaterial16staticMetaObjectE@Qt_5 5.6.0
 _ZN10Qt3DRender27QDiffuseSpecularMapMaterial19textureScaleChangedEf@Qt_5 5.6.0
 _ZN10Qt3DRender27QDiffuseSpecularMapMaterialC1EPN8Qt3DCore5QNodeE@Qt_5 5.6.0
 _ZN10Qt3DRender27QDiffuseSpecularMapMaterialC2EPN8Qt3DCore5QNodeE@Qt_5 5.6.0
 _ZN10Qt3DRender27QDiffuseSpecularMapMaterialD0Ev@Qt_5 5.6.0
 _ZN10Qt3DRender27QDiffuseSpecularMapMaterialD1Ev@Qt_5 5.6.0
 _ZN10Qt3DRender27QDiffuseSpecularMapMaterialD2Ev@Qt_5 5.6.0
 _ZN10Qt3DRender30QAbstractCollisionQueryService12addEntityHitERNS_21QCollisionQueryResultERKN8Qt3DCore7QNodeIdE@Qt_5 5.6.0
 _ZN10Qt3DRender30QAbstractCollisionQueryService15setResultHandleERNS_21QCollisionQueryResultERKi@Qt_5 5.6.0
 _ZN10Qt3DRender30QAbstractCollisionQueryServiceC1ERK7QString@Qt_5 5.6.0
 _ZN10Qt3DRender30QAbstractCollisionQueryServiceC1ERNS_37QAbstractCollisionQueryServicePrivateE@Qt_5 5.6.0
 _ZN10Qt3DRender30QAbstractCollisionQueryServiceC2ERK7QString@Qt_5 5.6.0
 _ZN10Qt3DRender30QAbstractCollisionQueryServiceC2ERNS_37QAbstractCollisionQueryServicePrivateE@Qt_5 5.6.0
 _ZN10Qt3DRender30QNormalDiffuseMapAlphaMaterial11qt_metacallEN11QMetaObject4CallEiPPv@Qt_5 5.6.0
 _ZN10Qt3DRender30QNormalDiffuseMapAlphaMaterial11qt_metacastEPKc@Qt_5 5.6.0
 _ZN10Qt3DRender30QNormalDiffuseMapAlphaMaterial16staticMetaObjectE@Qt_5 5.6.0
 _ZN10Qt3DRender30QNormalDiffuseMapAlphaMaterialC1EPN8Qt3DCore5QNodeE@Qt_5 5.6.0
 _ZN10Qt3DRender30QNormalDiffuseMapAlphaMaterialC2EPN8Qt3DCore5QNodeE@Qt_5 5.6.0
 _ZN10Qt3DRender30QNormalDiffuseMapAlphaMaterialD0Ev@Qt_5 5.6.0
 _ZN10Qt3DRender30QNormalDiffuseMapAlphaMaterialD1Ev@Qt_5 5.6.0
 _ZN10Qt3DRender30QNormalDiffuseMapAlphaMaterialD2Ev@Qt_5 5.6.0
 _ZN10Qt3DRender33QNormalDiffuseSpecularMapMaterial10setAmbientERK6QColor@Qt_5 5.6.0
 _ZN10Qt3DRender33QNormalDiffuseSpecularMapMaterial10setDiffuseEPNS_24QAbstractTextureProviderE@Qt_5 5.6.0
 _ZN10Qt3DRender33QNormalDiffuseSpecularMapMaterial11qt_metacallEN11QMetaObject4CallEiPPv@Qt_5 5.6.0
 _ZN10Qt3DRender33QNormalDiffuseSpecularMapMaterial11qt_metacastEPKc@Qt_5 5.6.0
 _ZN10Qt3DRender33QNormalDiffuseSpecularMapMaterial11setSpecularEPNS_24QAbstractTextureProviderE@Qt_5 5.6.0
 _ZN10Qt3DRender33QNormalDiffuseSpecularMapMaterial12setShininessEf@Qt_5 5.6.0
 _ZN10Qt3DRender33QNormalDiffuseSpecularMapMaterial13normalChangedEPNS_24QAbstractTextureProviderE@Qt_5 5.6.0
 _ZN10Qt3DRender33QNormalDiffuseSpecularMapMaterial14ambientChangedERK6QColor@Qt_5 5.6.0
 _ZN10Qt3DRender33QNormalDiffuseSpecularMapMaterial14diffuseChangedEPNS_24QAbstractTextureProviderE@Qt_5 5.6.0
 _ZN10Qt3DRender33QNormalDiffuseSpecularMapMaterial15setTextureScaleEf@Qt_5 5.6.0
 _ZN10Qt3DRender33QNormalDiffuseSpecularMapMaterial15specularChangedEPNS_24QAbstractTextureProviderE@Qt_5 5.6.0
 _ZN10Qt3DRender33QNormalDiffuseSpecularMapMaterial16shininessChangedEf@Qt_5 5.6.0
 _ZN10Qt3DRender33QNormalDiffuseSpecularMapMaterial16staticMetaObjectE@Qt_5 5.6.0
 _ZN10Qt3DRender33QNormalDiffuseSpecularMapMaterial19textureScaleChangedEf@Qt_5 5.6.0
 _ZN10Qt3DRender33QNormalDiffuseSpecularMapMaterial9setNormalEPNS_24QAbstractTextureProviderE@Qt_5 5.6.0
 _ZN10Qt3DRender33QNormalDiffuseSpecularMapMaterialC1EPN8Qt3DCore5QNodeE@Qt_5 5.6.0
 _ZN10Qt3DRender33QNormalDiffuseSpecularMapMaterialC1ERNS_40QNormalDiffuseSpecularMapMaterialPrivateEPN8Qt3DCore5QNodeE@Qt_5 5.6.0
 _ZN10Qt3DRender33QNormalDiffuseSpecularMapMaterialC2EPN8Qt3DCore5QNodeE@Qt_5 5.6.0
 _ZN10Qt3DRender33QNormalDiffuseSpecularMapMaterialC2ERNS_40QNormalDiffuseSpecularMapMaterialPrivateEPN8Qt3DCore5QNodeE@Qt_5 5.6.0
 _ZN10Qt3DRender33QNormalDiffuseSpecularMapMaterialD0Ev@Qt_5 5.6.0
 _ZN10Qt3DRender33QNormalDiffuseSpecularMapMaterialD1Ev@Qt_5 5.6.0
 _ZN10Qt3DRender33QNormalDiffuseSpecularMapMaterialD2Ev@Qt_5 5.6.0
 _ZN10Qt3DRender5QMesh10setSubMeshERK7QString@Qt_5 5.6.0
 _ZN10Qt3DRender5QMesh11qt_metacallEN11QMetaObject4CallEiPPv@Qt_5 5.6.0
 _ZN10Qt3DRender5QMesh11qt_metacastEPKc@Qt_5 5.6.0
 _ZN10Qt3DRender5QMesh13sourceChangedERK4QUrl@Qt_5 5.6.0
 _ZN10Qt3DRender5QMesh14subMeshChangedERK7QString@Qt_5 5.6.0
 _ZN10Qt3DRender5QMesh16staticMetaObjectE@Qt_5 5.6.0
 _ZN10Qt3DRender5QMesh9setSourceERK4QUrl@Qt_5 5.6.0
 _ZN10Qt3DRender5QMeshC1EPN8Qt3DCore5QNodeE@Qt_5 5.6.0
 _ZN10Qt3DRender5QMeshC1ERNS_12QMeshPrivateEPN8Qt3DCore5QNodeE@Qt_5 5.6.0
 _ZN10Qt3DRender5QMeshC2EPN8Qt3DCore5QNodeE@Qt_5 5.6.0
 _ZN10Qt3DRender5QMeshC2ERNS_12QMeshPrivateEPN8Qt3DCore5QNodeE@Qt_5 5.6.0
 _ZN10Qt3DRender5QMeshD0Ev@Qt_5 5.6.0
 _ZN10Qt3DRender5QMeshD1Ev@Qt_5 5.6.0
 _ZN10Qt3DRender5QMeshD2Ev@Qt_5 5.6.0
 _ZN10Qt3DRender6QLayer11qt_metacallEN11QMetaObject4CallEiPPv@Qt_5 5.6.0
 _ZN10Qt3DRender6QLayer11qt_metacastEPKc@Qt_5 5.6.0
 _ZN10Qt3DRender6QLayer12namesChangedERK11QStringList@Qt_5 5.6.0
 _ZN10Qt3DRender6QLayer16staticMetaObjectE@Qt_5 5.6.0
 _ZN10Qt3DRender6QLayer4copyEPKN8Qt3DCore5QNodeE@Qt_5 5.6.0
 _ZN10Qt3DRender6QLayer8setNamesERK11QStringList@Qt_5 5.6.0
 _ZN10Qt3DRender6QLayerC1EPN8Qt3DCore5QNodeE@Qt_5 5.6.0
 _ZN10Qt3DRender6QLayerC1ERNS_13QLayerPrivateEPN8Qt3DCore5QNodeE@Qt_5 5.6.0
 _ZN10Qt3DRender6QLayerC2EPN8Qt3DCore5QNodeE@Qt_5 5.6.0
 _ZN10Qt3DRender6QLayerC2ERNS_13QLayerPrivateEPN8Qt3DCore5QNodeE@Qt_5 5.6.0
 _ZN10Qt3DRender6QLayerD0Ev@Qt_5 5.6.0
 _ZN10Qt3DRender6QLayerD1Ev@Qt_5 5.6.0
 _ZN10Qt3DRender6QLayerD2Ev@Qt_5 5.6.0
 _ZN10Qt3DRender6QLight11qt_metacallEN11QMetaObject4CallEiPPv@Qt_5 5.6.0
 _ZN10Qt3DRender6QLight11qt_metacastEPKc@Qt_5 5.6.0
 _ZN10Qt3DRender6QLight11typeChangedENS0_4TypeE@Qt_5 5.6.0
 _ZN10Qt3DRender6QLight12colorChangedERK6QColor@Qt_5 5.6.0
 _ZN10Qt3DRender6QLight12setIntensityEf@Qt_5 5.6.0
 _ZN10Qt3DRender6QLight16intensityChangedEf@Qt_5 5.6.0
 _ZN10Qt3DRender6QLight16staticMetaObjectE@Qt_5 5.6.0
 _ZN10Qt3DRender6QLight4copyEPKN8Qt3DCore5QNodeE@Qt_5 5.6.0
 _ZN10Qt3DRender6QLight7setTypeENS0_4TypeE@Qt_5 5.6.0
 _ZN10Qt3DRender6QLight8setColorERK6QColor@Qt_5 5.6.0
 _ZN10Qt3DRender6QLightC1EPN8Qt3DCore5QNodeE@Qt_5 5.6.0
 _ZN10Qt3DRender6QLightC1ERNS_13QLightPrivateEPN8Qt3DCore5QNodeE@Qt_5 5.6.0
 _ZN10Qt3DRender6QLightC2EPN8Qt3DCore5QNodeE@Qt_5 5.6.0
 _ZN10Qt3DRender6QLightC2ERNS_13QLightPrivateEPN8Qt3DCore5QNodeE@Qt_5 5.6.0
 _ZN10Qt3DRender6QLightD0Ev@Qt_5 5.6.0
 _ZN10Qt3DRender6QLightD1Ev@Qt_5 5.6.0
 _ZN10Qt3DRender6QLightD2Ev@Qt_5 5.6.0
 _ZN10Qt3DRender6Render12NodeManagersC1Ev@Qt_5 5.6.0
 _ZN10Qt3DRender6Render12NodeManagersC2Ev@Qt_5 5.6.0
 _ZN10Qt3DRender6Render15FrameCleanupJob26updateBoundingVolumesDebugEPNS0_6EntityE@Qt_5_PRIVATE_API 5.6.0
 _ZN10Qt3DRender6Render15FrameCleanupJob3runEv@Qt_5 5.6.0
 _ZN10Qt3DRender6Render15FrameCleanupJob7setRootEPNS0_6EntityE@Qt_5_PRIVATE_API 5.6.0
 _ZN10Qt3DRender6Render15FrameCleanupJobC1EPNS0_12NodeManagersE@Qt_5 5.6.0
 _ZN10Qt3DRender6Render15FrameCleanupJobC2EPNS0_12NodeManagersE@Qt_5 5.6.0
 _ZN10Qt3DRender6Render15FrameCleanupJobD0Ev@Qt_5 5.6.0
 _ZN10Qt3DRender6Render15FrameCleanupJobD1Ev@Qt_5 5.6.0
 _ZN10Qt3DRender6Render15FrameCleanupJobD2Ev@Qt_5 5.6.0
 _ZN10Qt3DRender6Render19FramePreparationJob13parseNodeTreeEPNS0_6EntityE@Qt_5_PRIVATE_API 5.6.0
 _ZN10Qt3DRender6Render19FramePreparationJob3runEv@Qt_5 5.6.0
 _ZN10Qt3DRender6Render19FramePreparationJob7setRootEPNS0_6EntityE@Qt_5_PRIVATE_API 5.6.0
 _ZN10Qt3DRender6Render19FramePreparationJobC1EPNS0_12NodeManagersE@Qt_5 5.6.0
 _ZN10Qt3DRender6Render19FramePreparationJobC2EPNS0_12NodeManagersE@Qt_5 5.6.0
 _ZN10Qt3DRender6Render19FramePreparationJobD0Ev@Qt_5 5.6.0
 _ZN10Qt3DRender6Render19FramePreparationJobD1Ev@Qt_5 5.6.0
 _ZN10Qt3DRender6Render19FramePreparationJobD2Ev@Qt_5 5.6.0
 _ZN10Qt3DRender6Render23UpdateBoundingVolumeJob3runEv@Qt_5 5.6.0
 _ZN10Qt3DRender6Render23UpdateBoundingVolumeJob7setRootEPNS0_6EntityE@Qt_5_PRIVATE_API 5.6.0
 _ZN10Qt3DRender6Render23UpdateBoundingVolumeJobC1Ev@Qt_5 5.6.0
 _ZN10Qt3DRender6Render23UpdateBoundingVolumeJobC2Ev@Qt_5 5.6.0
 _ZN10Qt3DRender6Render23UpdateWorldTransformJob3runEv@Qt_5 5.6.0
 _ZN10Qt3DRender6Render23UpdateWorldTransformJob7setRootEPNS0_6EntityE@Qt_5_PRIVATE_API 5.6.0
 _ZN10Qt3DRender6Render23UpdateWorldTransformJobC1Ev@Qt_5 5.6.0
 _ZN10Qt3DRender6Render23UpdateWorldTransformJobC2Ev@Qt_5 5.6.0
 _ZN10Qt3DRender6Render26CalculateBoundingVolumeJob3runEv@Qt_5 5.6.0
 _ZN10Qt3DRender6Render26CalculateBoundingVolumeJob7setRootEPNS0_6EntityE@Qt_5_PRIVATE_API 5.6.0
 _ZN10Qt3DRender6Render26CalculateBoundingVolumeJobC1EPNS0_12NodeManagersE@Qt_5 5.6.0
 _ZN10Qt3DRender6Render26CalculateBoundingVolumeJobC2EPNS0_12NodeManagersE@Qt_5 5.6.0
 _ZN10Qt3DRender6Render6Sphere10fromPointsERK7QVectorI9QVector3DE@Qt_5 5.6.0
 _ZN10Qt3DRender6Render6Sphere10ms_epsilonE@Qt_5 5.6.0
 _ZN10Qt3DRender6Render6Sphere15expandToContainERK9QVector3D@Qt_5 5.6.0
 _ZN10Qt3DRender6Render6Sphere15expandToContainERKS1_@Qt_5 5.6.0
 _ZN10Qt3DRender6Render6Sphere20initializeFromPointsERK7QVectorI9QVector3DE@Qt_5 5.6.0
 _ZN10Qt3DRender6Render8Renderer10initializeEv@Qt_5 5.6.0
 _ZN10Qt3DRender6Render8Renderer10setSurfaceEP8QSurface@Qt_5 5.6.0
 _ZN10Qt3DRender6Render8Renderer12addAllocatorEPN8Qt3DCore15QFrameAllocatorE@Qt_5 5.6.0
 _ZN10Qt3DRender6Render8Renderer12setSceneRootEPN8Qt3DCore19QBackendNodeFactoryEPNS0_6EntityE@Qt_5_PRIVATE_API 5.6.0
 _ZN10Qt3DRender6Render8Renderer13renderBinJobsEv@Qt_5 5.6.0
 _ZN10Qt3DRender6Render8Renderer13tlsAllocatorsEv@Qt_5 5.6.0
 _ZN10Qt3DRender6Render8Renderer15executeCommandsERK7QVectorIPNS0_13RenderCommandEE@Qt_5 5.6.0
 _ZN10Qt3DRender6Render8Renderer16createAllocatorsEPN8Qt3DCore25QAbstractAspectJobManagerE@Qt_5 5.6.0
 _ZN10Qt3DRender6Render8Renderer16setOpenGLContextEP14QOpenGLContext@Qt_5 5.6.0
 _ZN10Qt3DRender6Render8Renderer17destroyAllocatorsEPN8Qt3DCore25QAbstractAspectJobManagerE@Qt_5 5.6.0
 _ZN10Qt3DRender6Render8Renderer17enqueueRenderViewEPNS0_10RenderViewEi@Qt_5_PRIVATE_API 5.6.0
 _ZN10Qt3DRender6Render8Renderer17setFrameGraphRootEN8Qt3DCore7QNodeIdE@Qt_5 5.6.0
 _ZN10Qt3DRender6Render8Renderer17setSurfaceExposedEb@Qt_5 5.6.0
 _ZN10Qt3DRender6Render8Renderer17submitRenderViewsEv@Qt_5 5.6.0
 _ZN10Qt3DRender6Render8Renderer19createRenderViewJobEPNS0_14FrameGraphNodeEi@Qt_5_PRIVATE_API 5.6.0
 _ZN10Qt3DRender6Render8Renderer19registerEventFilterEPN8Qt3DCore19QEventFilterServiceE@Qt_5 5.6.0
 _ZN10Qt3DRender6Render8Renderer20buildDefaultMaterialEv@Qt_5 5.6.0
 _ZN10Qt3DRender6Render8Renderer21buildDefaultTechniqueEv@Qt_5 5.6.0
 _ZN10Qt3DRender6Render8Renderer21currentFrameAllocatorEv@Qt_5 5.6.0
 _ZN10Qt3DRender6Render8Renderer21pickBoundingVolumeJobEv@Qt_5 5.6.0
 _ZN10Qt3DRender6Render8Renderer26createThreadLocalAllocatorEPv@Qt_5 5.6.0
 _ZN10Qt3DRender6Render8Renderer26updateBuffersAndAttributesEPNS0_8GeometryEPNS0_13RenderCommandERib@Qt_5_PRIVATE_API 5.6.0
 _ZN10Qt3DRender6Render8Renderer27destroyThreadLocalAllocatorEPv@Qt_5 5.6.0
 _ZN10Qt3DRender6Render8Renderer6renderEv@Qt_5 5.6.0
 _ZN10Qt3DRender6Render8Renderer7setTimeEx@Qt_5 5.6.0
 _ZN10Qt3DRender6Render8Renderer8doRenderEv@Qt_5 5.6.0
 _ZN10Qt3DRender6Render8Renderer8shutdownEv@Qt_5 5.6.0
 _ZN10Qt3DRender6Render8RendererC1ENS_13QRenderAspect10RenderTypeE@Qt_5 5.6.0
 _ZN10Qt3DRender6Render8RendererC2ENS_13QRenderAspect10RenderTypeE@Qt_5 5.6.0
 _ZN10Qt3DRender6Render8RendererD0Ev@Qt_5 5.6.0
 _ZN10Qt3DRender6Render8RendererD1Ev@Qt_5 5.6.0
 _ZN10Qt3DRender6Render8RendererD2Ev@Qt_5 5.6.0
 _ZN10Qt3DRender7QBuffer11qt_metacallEN11QMetaObject4CallEiPPv@Qt_5 5.6.0
 _ZN10Qt3DRender7QBuffer11qt_metacastEPKc@Qt_5 5.6.0
 _ZN10Qt3DRender7QBuffer11syncChangedEb@Qt_5 5.6.0
 _ZN10Qt3DRender7QBuffer11typeChangedENS0_10BufferTypeE@Qt_5 5.6.0
 _ZN10Qt3DRender7QBuffer12usageChangedENS0_9UsageTypeE@Qt_5 5.6.0
 _ZN10Qt3DRender7QBuffer16sceneChangeEventERK14QSharedPointerIN8Qt3DCore12QSceneChangeEE@Qt_5 5.6.0
 _ZN10Qt3DRender7QBuffer16setBufferFunctorERK14QSharedPointerINS_14QBufferFunctorEE@Qt_5 5.6.0
 _ZN10Qt3DRender7QBuffer16staticMetaObjectE@Qt_5 5.6.0
 _ZN10Qt3DRender7QBuffer4copyEPKN8Qt3DCore5QNodeE@Qt_5 5.6.0
 _ZN10Qt3DRender7QBuffer7setSyncEb@Qt_5 5.6.0
 _ZN10Qt3DRender7QBuffer7setTypeENS0_10BufferTypeE@Qt_5 5.6.0
 _ZN10Qt3DRender7QBuffer8setUsageENS0_9UsageTypeE@Qt_5 5.6.0
 _ZN10Qt3DRender7QBufferC1ENS0_10BufferTypeEPN8Qt3DCore5QNodeE@Qt_5 5.6.0
 _ZN10Qt3DRender7QBufferC1ERNS_14QBufferPrivateENS0_10BufferTypeEPN8Qt3DCore5QNodeE@Qt_5 5.6.0
 _ZN10Qt3DRender7QBufferC2ENS0_10BufferTypeEPN8Qt3DCore5QNodeE@Qt_5 5.6.0
 _ZN10Qt3DRender7QBufferC2ERNS_14QBufferPrivateENS0_10BufferTypeEPN8Qt3DCore5QNodeE@Qt_5 5.6.0
 _ZN10Qt3DRender7QBufferD0Ev@Qt_5 5.6.0
 _ZN10Qt3DRender7QBufferD1Ev@Qt_5 5.6.0
 _ZN10Qt3DRender7QBufferD2Ev@Qt_5 5.6.0
 _ZN10Qt3DRender7QEffect11qt_metacallEN11QMetaObject4CallEiPPv@Qt_5 5.6.0
 _ZN10Qt3DRender7QEffect11qt_metacastEPKc@Qt_5 5.6.0
 _ZN10Qt3DRender7QEffect12addParameterEPNS_10QParameterE@Qt_5 5.6.0
 _ZN10Qt3DRender7QEffect12addTechniqueEPNS_10QTechniqueE@Qt_5 5.6.0
 _ZN10Qt3DRender7QEffect15removeParameterEPNS_10QParameterE@Qt_5 5.6.0
 _ZN10Qt3DRender7QEffect15removeTechniqueEPNS_10QTechniqueE@Qt_5 5.6.0
 _ZN10Qt3DRender7QEffect16staticMetaObjectE@Qt_5 5.6.0
 _ZN10Qt3DRender7QEffect4copyEPKN8Qt3DCore5QNodeE@Qt_5 5.6.0
 _ZN10Qt3DRender7QEffectC1EPN8Qt3DCore5QNodeE@Qt_5 5.6.0
 _ZN10Qt3DRender7QEffectC1ERNS_14QEffectPrivateEPN8Qt3DCore5QNodeE@Qt_5 5.6.0
 _ZN10Qt3DRender7QEffectC2EPN8Qt3DCore5QNodeE@Qt_5 5.6.0
 _ZN10Qt3DRender7QEffectC2ERNS_14QEffectPrivateEPN8Qt3DCore5QNodeE@Qt_5 5.6.0
 _ZN10Qt3DRender7QEffectD0Ev@Qt_5 5.6.0
 _ZN10Qt3DRender7QEffectD1Ev@Qt_5 5.6.0
 _ZN10Qt3DRender7QEffectD2Ev@Qt_5 5.6.0
 _ZN10Qt3DRender7QNoDraw11qt_metacallEN11QMetaObject4CallEiPPv@Qt_5 5.6.0
 _ZN10Qt3DRender7QNoDraw11qt_metacastEPKc@Qt_5 5.6.0
 _ZN10Qt3DRender7QNoDraw16staticMetaObjectE@Qt_5 5.6.0
 _ZN10Qt3DRender7QNoDrawC1EPN8Qt3DCore5QNodeE@Qt_5 5.6.0
 _ZN10Qt3DRender7QNoDrawC2EPN8Qt3DCore5QNodeE@Qt_5 5.6.0
 _ZN10Qt3DRender7QNoDrawD0Ev@Qt_5 5.6.0
 _ZN10Qt3DRender7QNoDrawD1Ev@Qt_5 5.6.0
 _ZN10Qt3DRender7QNoDrawD2Ev@Qt_5 5.6.0
 _ZN10Qt3DRender7QWindow11resizeEventEP12QResizeEvent@Qt_5 5.6.0
 _ZN10Qt3DRender7QWindow13defaultCameraEv@Qt_5 5.6.0
 _ZN10Qt3DRender7QWindow13setFrameGraphEPNS_11QFrameGraphE@Qt_5 5.6.0
 _ZN10Qt3DRender7QWindow13setRootEntityEPN8Qt3DCore7QEntityE@Qt_5 5.6.0
 _ZN10Qt3DRender7QWindow14registerAspectEPN8Qt3DCore15QAbstractAspectE@Qt_5 5.6.0
 _ZN10Qt3DRender7QWindow14registerAspectERK7QString@Qt_5 5.6.0
 _ZN10Qt3DRender7QWindow4showEv@Qt_5 5.6.0
 _ZN10Qt3DRender7QWindowC1EP7QWindow@Qt_5 5.6.0
 _ZN10Qt3DRender7QWindowC1ERNS_14QWindowPrivateEP7QWindow@Qt_5 5.6.0
 _ZN10Qt3DRender7QWindowC2EP7QWindow@Qt_5 5.6.0
 _ZN10Qt3DRender7QWindowC2ERNS_14QWindowPrivateEP7QWindow@Qt_5 5.6.0
 _ZN10Qt3DRender7QWindowD0Ev@Qt_5 5.6.0
 _ZN10Qt3DRender7QWindowD1Ev@Qt_5 5.6.0
 _ZN10Qt3DRender7QWindowD2Ev@Qt_5 5.6.0
 _ZN10Qt3DRender9QCullFace11modeChangedENS0_11CullingModeE@Qt_5 5.6.0
 _ZN10Qt3DRender9QCullFace11qt_metacallEN11QMetaObject4CallEiPPv@Qt_5 5.6.0
 _ZN10Qt3DRender9QCullFace11qt_metacastEPKc@Qt_5 5.6.0
 _ZN10Qt3DRender9QCullFace16staticMetaObjectE@Qt_5 5.6.0
 _ZN10Qt3DRender9QCullFace4copyEPKN8Qt3DCore5QNodeE@Qt_5 5.6.0
 _ZN10Qt3DRender9QCullFace7setModeENS0_11CullingModeE@Qt_5 5.6.0
 _ZN10Qt3DRender9QCullFaceC1EPN8Qt3DCore5QNodeE@Qt_5 5.6.0
 _ZN10Qt3DRender9QCullFaceC2EPN8Qt3DCore5QNodeE@Qt_5 5.6.0
 _ZN10Qt3DRender9QCullFaceD0Ev@Qt_5 5.6.0
 _ZN10Qt3DRender9QCullFaceD1Ev@Qt_5 5.6.0
 _ZN10Qt3DRender9QCullFaceD2Ev@Qt_5 5.6.0
 _ZN10Qt3DRender9QGeometry11qt_metacallEN11QMetaObject4CallEiPPv@Qt_5 5.6.0
 _ZN10Qt3DRender9QGeometry11qt_metacastEPKc@Qt_5 5.6.0
 _ZN10Qt3DRender9QGeometry12addAttributeEPNS_18QAbstractAttributeE@Qt_5 5.6.0
 _ZN10Qt3DRender9QGeometry15removeAttributeEPNS_18QAbstractAttributeE@Qt_5 5.6.0
 _ZN10Qt3DRender9QGeometry16staticMetaObjectE@Qt_5 5.6.0
 _ZN10Qt3DRender9QGeometry19setVerticesPerPatchEi@Qt_5 5.6.0
 _ZN10Qt3DRender9QGeometry23boundingVolumeSpecifierEv@Qt_5 5.6.0
 _ZN10Qt3DRender9QGeometry23verticesPerPatchChangedEi@Qt_5 5.6.0
 _ZN10Qt3DRender9QGeometry4copyEPKN8Qt3DCore5QNodeE@Qt_5 5.6.0
 _ZN10Qt3DRender9QGeometryC1EPN8Qt3DCore5QNodeE@Qt_5 5.6.0
 _ZN10Qt3DRender9QGeometryC1ERNS_16QGeometryPrivateEPN8Qt3DCore5QNodeE@Qt_5 5.6.0
 _ZN10Qt3DRender9QGeometryC2EPN8Qt3DCore5QNodeE@Qt_5 5.6.0
 _ZN10Qt3DRender9QGeometryC2ERNS_16QGeometryPrivateEPN8Qt3DCore5QNodeE@Qt_5 5.6.0
 _ZN10Qt3DRender9QGeometryD0Ev@Qt_5 5.6.0
 _ZN10Qt3DRender9QGeometryD1Ev@Qt_5 5.6.0
 _ZN10Qt3DRender9QGeometryD2Ev@Qt_5 5.6.0
 _ZN10Qt3DRender9QLighting11qt_metacallEN11QMetaObject4CallEiPPv@Qt_5 5.6.0
 _ZN10Qt3DRender9QLighting11qt_metacastEPKc@Qt_5 5.6.0
 _ZN10Qt3DRender9QLighting16staticMetaObjectE@Qt_5 5.6.0
 _ZN10Qt3DRender9QLighting4copyEPKN8Qt3DCore5QNodeE@Qt_5 5.6.0
 _ZN10Qt3DRender9QLightingC1EPN8Qt3DCore5QNodeE@Qt_5 5.6.0
 _ZN10Qt3DRender9QLightingC1ERNS_16QLightingPrivateEPN8Qt3DCore5QNodeE@Qt_5 5.6.0
 _ZN10Qt3DRender9QLightingC2EPN8Qt3DCore5QNodeE@Qt_5 5.6.0
 _ZN10Qt3DRender9QLightingC2ERNS_16QLightingPrivateEPN8Qt3DCore5QNodeE@Qt_5 5.6.0
 _ZN10Qt3DRender9QLightingD0Ev@Qt_5 5.6.0
 _ZN10Qt3DRender9QLightingD1Ev@Qt_5 5.6.0
 _ZN10Qt3DRender9QLightingD2Ev@Qt_5 5.6.0
 _ZN10Qt3DRender9QMaterial11qt_metacallEN11QMetaObject4CallEiPPv@Qt_5 5.6.0
 _ZN10Qt3DRender9QMaterial11qt_metacastEPKc@Qt_5 5.6.0
 _ZN10Qt3DRender9QMaterial12addParameterEPNS_10QParameterE@Qt_5 5.6.0
 _ZN10Qt3DRender9QMaterial13effectChangedEPNS_7QEffectE@Qt_5 5.6.0
 _ZN10Qt3DRender9QMaterial15removeParameterEPNS_10QParameterE@Qt_5 5.6.0
 _ZN10Qt3DRender9QMaterial16staticMetaObjectE@Qt_5 5.6.0
 _ZN10Qt3DRender9QMaterial19setTextureParameterE7QStringPNS_24QAbstractTextureProviderE@Qt_5 5.6.0
 _ZN10Qt3DRender9QMaterial4copyEPKN8Qt3DCore5QNodeE@Qt_5 5.6.0
 _ZN10Qt3DRender9QMaterial9setEffectEPNS_7QEffectE@Qt_5 5.6.0
 _ZN10Qt3DRender9QMaterialC1EPN8Qt3DCore5QNodeE@Qt_5 5.6.0
 _ZN10Qt3DRender9QMaterialC1ERNS_16QMaterialPrivateEPN8Qt3DCore5QNodeE@Qt_5 5.6.0
 _ZN10Qt3DRender9QMaterialC2EPN8Qt3DCore5QNodeE@Qt_5 5.6.0
 _ZN10Qt3DRender9QMaterialC2ERNS_16QMaterialPrivateEPN8Qt3DCore5QNodeE@Qt_5 5.6.0
 _ZN10Qt3DRender9QMaterialD0Ev@Qt_5 5.6.0
 _ZN10Qt3DRender9QMaterialD1Ev@Qt_5 5.6.0
 _ZN10Qt3DRender9QMaterialD2Ev@Qt_5 5.6.0
 _ZN10Qt3DRender9QStateSet11qt_metacallEN11QMetaObject4CallEiPPv@Qt_5 5.6.0
 _ZN10Qt3DRender9QStateSet11qt_metacastEPKc@Qt_5 5.6.0
 _ZN10Qt3DRender9QStateSet14addRenderStateEPNS_12QRenderStateE@Qt_5 5.6.0
 _ZN10Qt3DRender9QStateSet16staticMetaObjectE@Qt_5 5.6.0
 _ZN10Qt3DRender9QStateSet17removeRenderStateEPNS_12QRenderStateE@Qt_5 5.6.0
 _ZN10Qt3DRender9QStateSet4copyEPKN8Qt3DCore5QNodeE@Qt_5 5.6.0
 _ZN10Qt3DRender9QStateSetC1EPN8Qt3DCore5QNodeE@Qt_5 5.6.0
 _ZN10Qt3DRender9QStateSetC1ERNS_16QStateSetPrivateEPN8Qt3DCore5QNodeE@Qt_5 5.6.0
 _ZN10Qt3DRender9QStateSetC2EPN8Qt3DCore5QNodeE@Qt_5 5.6.0
 _ZN10Qt3DRender9QStateSetC2ERNS_16QStateSetPrivateEPN8Qt3DCore5QNodeE@Qt_5 5.6.0
 _ZN10Qt3DRender9QStateSetD0Ev@Qt_5 5.6.0
 _ZN10Qt3DRender9QStateSetD1Ev@Qt_5 5.6.0
 _ZN10Qt3DRender9QStateSetD2Ev@Qt_5 5.6.0
 _ZN10Qt3DRender9QViewport11qt_metacallEN11QMetaObject4CallEiPPv@Qt_5 5.6.0
 _ZN10Qt3DRender9QViewport11qt_metacastEPKc@Qt_5 5.6.0
 _ZN10Qt3DRender9QViewport11rectChangedERK6QRectF@Qt_5 5.6.0
 _ZN10Qt3DRender9QViewport13setClearColorERK6QColor@Qt_5 5.6.0
 _ZN10Qt3DRender9QViewport16staticMetaObjectE@Qt_5 5.6.0
 _ZN10Qt3DRender9QViewport17clearColorChangedERK6QColor@Qt_5 5.6.0
 _ZN10Qt3DRender9QViewport4copyEPKN8Qt3DCore5QNodeE@Qt_5 5.6.0
 _ZN10Qt3DRender9QViewport7setRectERK6QRectF@Qt_5 5.6.0
 _ZN10Qt3DRender9QViewportC1EPN8Qt3DCore5QNodeE@Qt_5 5.6.0
 _ZN10Qt3DRender9QViewportC1ERNS_16QViewportPrivateEPN8Qt3DCore5QNodeE@Qt_5 5.6.0
 _ZN10Qt3DRender9QViewportC2EPN8Qt3DCore5QNodeE@Qt_5 5.6.0
 _ZN10Qt3DRender9QViewportC2ERNS_16QViewportPrivateEPN8Qt3DCore5QNodeE@Qt_5 5.6.0
 _ZN10Qt3DRender9QViewportD0Ev@Qt_5 5.6.0
 _ZN10Qt3DRender9QViewportD1Ev@Qt_5 5.6.0
 _ZN10Qt3DRender9QViewportD2Ev@Qt_5 5.6.0
 _ZNK10Qt3DRender10QAlphaTest10metaObjectEv@Qt_5 5.6.0
 _ZNK10Qt3DRender10QAlphaTest4funcEv@Qt_5 5.6.0
 _ZNK10Qt3DRender10QAlphaTest5clampEv@Qt_5 5.6.0
 _ZNK10Qt3DRender10QAttribute10asVector2DEv@Qt_5 5.6.0
 _ZNK10Qt3DRender10QAttribute10asVector3DEv@Qt_5 5.6.0
 _ZNK10Qt3DRender10QAttribute10asVector4DEv@Qt_5 5.6.0
 _ZNK10Qt3DRender10QAttribute10metaObjectEv@Qt_5 5.6.0
 _ZNK10Qt3DRender10QAttribute6bufferEv@Qt_5 5.6.0
 _ZNK10Qt3DRender10QClipPlane10metaObjectEv@Qt_5 5.6.0
 _ZNK10Qt3DRender10QClipPlane5planeEv@Qt_5 5.6.0
 _ZNK10Qt3DRender10QColorMask10metaObjectEv@Qt_5 5.6.0
 _ZNK10Qt3DRender10QColorMask5isRedEv@Qt_5 5.6.0
 _ZNK10Qt3DRender10QColorMask6isBlueEv@Qt_5 5.6.0
 _ZNK10Qt3DRender10QColorMask7isAlphaEv@Qt_5 5.6.0
 _ZNK10Qt3DRender10QColorMask7isGreenEv@Qt_5 5.6.0
 _ZNK10Qt3DRender10QDepthMask10metaObjectEv@Qt_5 5.6.0
 _ZNK10Qt3DRender10QDepthMask4maskEv@Qt_5 5.6.0
 _ZNK10Qt3DRender10QDepthTest10metaObjectEv@Qt_5 5.6.0
 _ZNK10Qt3DRender10QDepthTest4funcEv@Qt_5 5.6.0
 _ZNK10Qt3DRender10QDithering10metaObjectEv@Qt_5 5.6.0
 _ZNK10Qt3DRender10QFrontFace10metaObjectEv@Qt_5 5.6.0
 _ZNK10Qt3DRender10QFrontFace9directionEv@Qt_5 5.6.0
 _ZNK10Qt3DRender10QParameter10metaObjectEv@Qt_5 5.6.0
 _ZNK10Qt3DRender10QParameter4nameEv@Qt_5 5.6.0
 _ZNK10Qt3DRender10QParameter5valueEv@Qt_5 5.6.0
 _ZNK10Qt3DRender10QPickEvent10isAcceptedEv@Qt_5 5.6.0
 _ZNK10Qt3DRender10QPickEvent10metaObjectEv@Qt_5 5.6.0
 _ZNK10Qt3DRender10QPlaneMesh10metaObjectEv@Qt_5 5.6.0
 _ZNK10Qt3DRender10QPlaneMesh14meshResolutionEv@Qt_5 5.6.0
 _ZNK10Qt3DRender10QPlaneMesh5widthEv@Qt_5 5.6.0
 _ZNK10Qt3DRender10QPlaneMesh6heightEv@Qt_5 5.6.0
 _ZNK10Qt3DRender10QPointSize10metaObjectEv@Qt_5 5.6.0
 _ZNK10Qt3DRender10QPointSize13specificationEv@Qt_5 5.6.0
 _ZNK10Qt3DRender10QPointSize14isProgrammableEv@Qt_5 5.6.0
 _ZNK10Qt3DRender10QPointSize5valueEv@Qt_5 5.6.0
 _ZNK10Qt3DRender10QSpotLight10metaObjectEv@Qt_5 5.6.0
 _ZNK10Qt3DRender10QSpotLight11cutOffAngleEv@Qt_5 5.6.0
 _ZNK10Qt3DRender10QSpotLight9directionEv@Qt_5 5.6.0
 _ZNK10Qt3DRender10QStencilOp10metaObjectEv@Qt_5 5.6.0
 _ZNK10Qt3DRender10QStencilOp4backEv@Qt_5 5.6.0
 _ZNK10Qt3DRender10QStencilOp5frontEv@Qt_5 5.6.0
 _ZNK10Qt3DRender10QTechnique10metaObjectEv@Qt_5 5.6.0
 _ZNK10Qt3DRender10QTechnique10parametersEv@Qt_5 5.6.0
 _ZNK10Qt3DRender10QTechnique11annotationsEv@Qt_5 5.6.0
 _ZNK10Qt3DRender10QTechnique12renderPassesEv@Qt_5 5.6.0
 _ZNK10Qt3DRender10QTexture1D10metaObjectEv@Qt_5 5.6.0
 _ZNK10Qt3DRender10QTexture2D10metaObjectEv@Qt_5 5.6.0
 _ZNK10Qt3DRender10QTexture3D10metaObjectEv@Qt_5 5.6.0
 _ZNK10Qt3DRender10QTorusMesh10metaObjectEv@Qt_5 5.6.0
 _ZNK10Qt3DRender10QTorusMesh11minorRadiusEv@Qt_5 5.6.0
 _ZNK10Qt3DRender10QTorusMesh5ringsEv@Qt_5 5.6.0
 _ZNK10Qt3DRender10QTorusMesh6radiusEv@Qt_5 5.6.0
 _ZNK10Qt3DRender10QTorusMesh6slicesEv@Qt_5 5.6.0
 _ZNK10Qt3DRender11QAnnotation10metaObjectEv@Qt_5 5.6.0
 _ZNK10Qt3DRender11QAnnotation4nameEv@Qt_5 5.6.0
 _ZNK10Qt3DRender11QAnnotation5valueEv@Qt_5 5.6.0
 _ZNK10Qt3DRender11QBlendState10metaObjectEv@Qt_5 5.6.0
 _ZNK10Qt3DRender11QBlendState6dstRGBEv@Qt_5 5.6.0
 _ZNK10Qt3DRender11QBlendState6srcRGBEv@Qt_5 5.6.0
 _ZNK10Qt3DRender11QBlendState8dstAlphaEv@Qt_5 5.6.0
 _ZNK10Qt3DRender11QBlendState8srcAlphaEv@Qt_5 5.6.0
 _ZNK10Qt3DRender11QCuboidMesh10metaObjectEv@Qt_5 5.6.0
 _ZNK10Qt3DRender11QCuboidMesh16xyMeshResolutionEv@Qt_5 5.6.0
 _ZNK10Qt3DRender11QCuboidMesh16xzMeshResolutionEv@Qt_5 5.6.0
 _ZNK10Qt3DRender11QCuboidMesh16yzMeshResolutionEv@Qt_5 5.6.0
 _ZNK10Qt3DRender11QCuboidMesh7xExtentEv@Qt_5 5.6.0
 _ZNK10Qt3DRender11QCuboidMesh7yExtentEv@Qt_5 5.6.0
 _ZNK10Qt3DRender11QCuboidMesh7zExtentEv@Qt_5 5.6.0
 _ZNK10Qt3DRender11QFrameGraph10metaObjectEv@Qt_5 5.6.0
 _ZNK10Qt3DRender11QFrameGraph16activeFrameGraphEv@Qt_5 5.6.0
 _ZNK10Qt3DRender11QPointLight10metaObjectEv@Qt_5 5.6.0
 _ZNK10Qt3DRender11QPointLight11attenuationEv@Qt_5 5.6.0
 _ZNK10Qt3DRender11QPointLight17linearAttenuationEv@Qt_5 5.6.0
 _ZNK10Qt3DRender11QPointLight19constantAttenuationEv@Qt_5 5.6.0
 _ZNK10Qt3DRender11QPointLight20quadraticAttenuationEv@Qt_5 5.6.0
 _ZNK10Qt3DRender11QRenderPass10attributesEv@Qt_5 5.6.0
 _ZNK10Qt3DRender11QRenderPass10metaObjectEv@Qt_5 5.6.0
 _ZNK10Qt3DRender11QRenderPass10parametersEv@Qt_5 5.6.0
 _ZNK10Qt3DRender11QRenderPass11annotationsEv@Qt_5 5.6.0
 _ZNK10Qt3DRender11QRenderPass12renderStatesEv@Qt_5 5.6.0
 _ZNK10Qt3DRender11QRenderPass13shaderProgramEv@Qt_5 5.6.0
 _ZNK10Qt3DRender11QRenderPass8bindingsEv@Qt_5 5.6.0
 _ZNK10Qt3DRender11QRenderPass8uniformsEv@Qt_5 5.6.0
 _ZNK10Qt3DRender11QShaderData10metaObjectEv@Qt_5 5.6.0
 _ZNK10Qt3DRender11QShaderData14propertyReaderEv@Qt_5 5.6.0
 _ZNK10Qt3DRender11QSortMethod10metaObjectEv@Qt_5 5.6.0
 _ZNK10Qt3DRender11QSortMethod8criteriaEv@Qt_5 5.6.0
 _ZNK10Qt3DRender11QSphereMesh10metaObjectEv@Qt_5 5.6.0
 _ZNK10Qt3DRender11QSphereMesh16generateTangentsEv@Qt_5 5.6.0
 _ZNK10Qt3DRender11QSphereMesh5ringsEv@Qt_5 5.6.0
 _ZNK10Qt3DRender11QSphereMesh6radiusEv@Qt_5 5.6.0
 _ZNK10Qt3DRender11QSphereMesh6slicesEv@Qt_5 5.6.0
 _ZNK10Qt3DRender12QClearBuffer10metaObjectEv@Qt_5 5.6.0
 _ZNK10Qt3DRender12QClearBuffer7buffersEv@Qt_5 5.6.0
 _ZNK10Qt3DRender12QLayerFilter10metaObjectEv@Qt_5 5.6.0
 _ZNK10Qt3DRender12QLayerFilter6layersEv@Qt_5 5.6.0
 _ZNK10Qt3DRender12QRenderState10metaObjectEv@Qt_5 5.6.0
 _ZNK10Qt3DRender12QRenderState4typeEv@Qt_5 5.6.0
 _ZNK10Qt3DRender12QSceneLoader10metaObjectEv@Qt_5 5.6.0
 _ZNK10Qt3DRender12QScissorTest10metaObjectEv@Qt_5 5.6.0
 _ZNK10Qt3DRender12QScissorTest4leftEv@Qt_5 5.6.0
 _ZNK10Qt3DRender12QScissorTest5widthEv@Qt_5 5.6.0
 _ZNK10Qt3DRender12QScissorTest6bottomEv@Qt_5 5.6.0
 _ZNK10Qt3DRender12QScissorTest6heightEv@Qt_5 5.6.0
 _ZNK10Qt3DRender12QStencilMask10metaObjectEv@Qt_5 5.6.0
 _ZNK10Qt3DRender12QStencilMask8backMaskEv@Qt_5 5.6.0
 _ZNK10Qt3DRender12QStencilMask9frontMaskEv@Qt_5 5.6.0
 _ZNK10Qt3DRender12QStencilTest10metaObjectEv@Qt_5 5.6.0
 _ZNK10Qt3DRender12QStencilTest4backEv@Qt_5 5.6.0
 _ZNK10Qt3DRender12QStencilTest5frontEv@Qt_5 5.6.0
 _ZNK10Qt3DRender13QCylinderMesh10metaObjectEv@Qt_5 5.6.0
 _ZNK10Qt3DRender13QCylinderMesh5ringsEv@Qt_5 5.6.0
 _ZNK10Qt3DRender13QCylinderMesh6lengthEv@Qt_5 5.6.0
 _ZNK10Qt3DRender13QCylinderMesh6radiusEv@Qt_5 5.6.0
 _ZNK10Qt3DRender13QCylinderMesh6slicesEv@Qt_5 5.6.0
 _ZNK10Qt3DRender13QObjectPicker10metaObjectEv@Qt_5 5.6.0
 _ZNK10Qt3DRender13QObjectPicker12hoverEnabledEv@Qt_5 5.6.0
 _ZNK10Qt3DRender13QObjectPicker13containsMouseEv@Qt_5 5.6.0
 _ZNK10Qt3DRender13QObjectPicker9isPressedEv@Qt_5 5.6.0
 _ZNK10Qt3DRender13QRenderAspect10metaObjectEv@Qt_5 5.6.0
 _ZNK10Qt3DRender13QRenderTarget10metaObjectEv@Qt_5 5.6.0
 _ZNK10Qt3DRender13QRenderTarget11attachmentsEv@Qt_5 5.6.0
 _ZNK10Qt3DRender13QSkyboxEntity10metaObjectEv@Qt_5 5.6.0
 _ZNK10Qt3DRender13QSkyboxEntity14cameraPositionEv@Qt_5 5.6.0
 _ZNK10Qt3DRender13QSkyboxEntity8baseNameEv@Qt_5 5.6.0
 _ZNK10Qt3DRender13QSkyboxEntity9extensionEv@Qt_5 5.6.0
 _ZNK10Qt3DRender13QTexImageData11pixelFormatEv@Qt_5 5.6.0
 _ZNK10Qt3DRender13QTexImageData12isCompressedEv@Qt_5 5.6.0
 _ZNK10Qt3DRender13QTexImageData4dataEv@Qt_5 5.6.0
 _ZNK10Qt3DRender13QTexImageData5depthEv@Qt_5 5.6.0
 _ZNK10Qt3DRender13QTexImageData5widthEv@Qt_5 5.6.0
 _ZNK10Qt3DRender13QTexImageData6formatEv@Qt_5 5.6.0
 _ZNK10Qt3DRender13QTexImageData6heightEv@Qt_5 5.6.0
 _ZNK10Qt3DRender13QTexImageData9pixelTypeEv@Qt_5 5.6.0
 _ZNK10Qt3DRender13QTextureImage10metaObjectEv@Qt_5 5.6.0
 _ZNK10Qt3DRender13QTextureImage11dataFunctorEv@Qt_5 5.6.0
 _ZNK10Qt3DRender13QTextureImage6sourceEv@Qt_5 5.6.0
 _ZNK10Qt3DRender14QAlphaCoverage10metaObjectEv@Qt_5 5.6.0
 _ZNK10Qt3DRender14QBlendEquation10metaObjectEv@Qt_5 5.6.0
 _ZNK10Qt3DRender14QBlendEquation4modeEv@Qt_5 5.6.0
 _ZNK10Qt3DRender14QGoochMaterial10metaObjectEv@Qt_5 5.6.0
 _ZNK10Qt3DRender14QGoochMaterial4betaEv@Qt_5 5.6.0
 _ZNK10Qt3DRender14QGoochMaterial4coolEv@Qt_5 5.6.0
 _ZNK10Qt3DRender14QGoochMaterial4warmEv@Qt_5 5.6.0
 _ZNK10Qt3DRender14QGoochMaterial5alphaEv@Qt_5 5.6.0
 _ZNK10Qt3DRender14QGoochMaterial7diffuseEv@Qt_5 5.6.0
 _ZNK10Qt3DRender14QGoochMaterial8specularEv@Qt_5 5.6.0
 _ZNK10Qt3DRender14QGoochMaterial9shininessEv@Qt_5 5.6.0
 _ZNK10Qt3DRender14QPhongMaterial10metaObjectEv@Qt_5 5.6.0
 _ZNK10Qt3DRender14QPhongMaterial7ambientEv@Qt_5 5.6.0
 _ZNK10Qt3DRender14QPhongMaterial7diffuseEv@Qt_5 5.6.0
 _ZNK10Qt3DRender14QPhongMaterial8specularEv@Qt_5 5.6.0
 _ZNK10Qt3DRender14QPhongMaterial9shininessEv@Qt_5 5.6.0
 _ZNK10Qt3DRender14QPlaneGeometry10metaObjectEv@Qt_5 5.6.0
 _ZNK10Qt3DRender14QPlaneGeometry10resolutionEv@Qt_5 5.6.0
 _ZNK10Qt3DRender14QPlaneGeometry14indexAttributeEv@Qt_5 5.6.0
 _ZNK10Qt3DRender14QPlaneGeometry15normalAttributeEv@Qt_5 5.6.0
 _ZNK10Qt3DRender14QPlaneGeometry16tangentAttributeEv@Qt_5 5.6.0
 _ZNK10Qt3DRender14QPlaneGeometry17positionAttributeEv@Qt_5 5.6.0
 _ZNK10Qt3DRender14QPlaneGeometry17texCoordAttributeEv@Qt_5 5.6.0
 _ZNK10Qt3DRender14QPlaneGeometry5widthEv@Qt_5 5.6.0
 _ZNK10Qt3DRender14QPlaneGeometry6heightEv@Qt_5 5.6.0
 _ZNK10Qt3DRender14QPolygonOffset10metaObjectEv@Qt_5 5.6.0
 _ZNK10Qt3DRender14QPolygonOffset5unitsEv@Qt_5 5.6.0
 _ZNK10Qt3DRender14QPolygonOffset6factorEv@Qt_5 5.6.0
 _ZNK10Qt3DRender14QShaderProgram10metaObjectEv@Qt_5 5.6.0
 _ZNK10Qt3DRender14QShaderProgram10shaderCodeENS0_10ShaderTypeE@Qt_5 5.6.0
 _ZNK10Qt3DRender14QShaderProgram16vertexShaderCodeEv@Qt_5 5.6.0
 _ZNK10Qt3DRender14QShaderProgram17computeShaderCodeEv@Qt_5 5.6.0
 _ZNK10Qt3DRender14QShaderProgram18fragmentShaderCodeEv@Qt_5 5.6.0
 _ZNK10Qt3DRender14QShaderProgram18geometryShaderCodeEv@Qt_5 5.6.0
 _ZNK10Qt3DRender14QShaderProgram29tessellationControlShaderCodeEv@Qt_5 5.6.0
 _ZNK10Qt3DRender14QShaderProgram32tessellationEvaluationShaderCodeEv@Qt_5 5.6.0
 _ZNK10Qt3DRender14QSortCriterion10metaObjectEv@Qt_5 5.6.0
 _ZNK10Qt3DRender14QSortCriterion4sortEv@Qt_5 5.6.0
 _ZNK10Qt3DRender14QTextureBuffer10metaObjectEv@Qt_5 5.6.0
 _ZNK10Qt3DRender14QTorusGeometry10metaObjectEv@Qt_5 5.6.0
 _ZNK10Qt3DRender14QTorusGeometry11minorRadiusEv@Qt_5 5.6.0
 _ZNK10Qt3DRender14QTorusGeometry14indexAttributeEv@Qt_5 5.6.0
 _ZNK10Qt3DRender14QTorusGeometry15normalAttributeEv@Qt_5 5.6.0
 _ZNK10Qt3DRender14QTorusGeometry17positionAttributeEv@Qt_5 5.6.0
 _ZNK10Qt3DRender14QTorusGeometry17texCoordAttributeEv@Qt_5 5.6.0
 _ZNK10Qt3DRender14QTorusGeometry5ringsEv@Qt_5 5.6.0
 _ZNK10Qt3DRender14QTorusGeometry6radiusEv@Qt_5 5.6.0
 _ZNK10Qt3DRender14QTorusGeometry6slicesEv@Qt_5 5.6.0
 _ZNK10Qt3DRender15QAbstractBuffer10metaObjectEv@Qt_5 5.6.0
 _ZNK10Qt3DRender15QAbstractBuffer4dataEv@Qt_5 5.6.0
 _ZNK10Qt3DRender15QCameraSelector10metaObjectEv@Qt_5 5.6.0
 _ZNK10Qt3DRender15QCameraSelector6cameraEv@Qt_5 5.6.0
 _ZNK10Qt3DRender15QCuboidGeometry10metaObjectEv@Qt_5 5.6.0
 _ZNK10Qt3DRender15QCuboidGeometry14indexAttributeEv@Qt_5 5.6.0
 _ZNK10Qt3DRender15QCuboidGeometry15normalAttributeEv@Qt_5 5.6.0
 _ZNK10Qt3DRender15QCuboidGeometry16tangentAttributeEv@Qt_5 5.6.0
 _ZNK10Qt3DRender15QCuboidGeometry16xyMeshResolutionEv@Qt_5 5.6.0
 _ZNK10Qt3DRender15QCuboidGeometry16xzMeshResolutionEv@Qt_5 5.6.0
 _ZNK10Qt3DRender15QCuboidGeometry16yzMeshResolutionEv@Qt_5 5.6.0
 _ZNK10Qt3DRender15QCuboidGeometry17positionAttributeEv@Qt_5 5.6.0
 _ZNK10Qt3DRender15QCuboidGeometry17texCoordAttributeEv@Qt_5 5.6.0
 _ZNK10Qt3DRender15QCuboidGeometry7xExtentEv@Qt_5 5.6.0
 _ZNK10Qt3DRender15QCuboidGeometry7yExtentEv@Qt_5 5.6.0
 _ZNK10Qt3DRender15QCuboidGeometry7zExtentEv@Qt_5 5.6.0
 _ZNK10Qt3DRender15QFrameGraphNode10metaObjectEv@Qt_5 5.6.0
 _ZNK10Qt3DRender15QFrameGraphNode20parentFrameGraphNodeEv@Qt_5 5.6.0
 _ZNK10Qt3DRender15QFrameGraphNode9isEnabledEv@Qt_5 5.6.0
 _ZNK10Qt3DRender15QFrustumCulling10metaObjectEv@Qt_5 5.6.0
 _ZNK10Qt3DRender15QSphereGeometry10metaObjectEv@Qt_5 5.6.0
 _ZNK10Qt3DRender15QSphereGeometry14indexAttributeEv@Qt_5 5.6.0
 _ZNK10Qt3DRender15QSphereGeometry15normalAttributeEv@Qt_5 5.6.0
 _ZNK10Qt3DRender15QSphereGeometry16generateTangentsEv@Qt_5 5.6.0
 _ZNK10Qt3DRender15QSphereGeometry16tangentAttributeEv@Qt_5 5.6.0
 _ZNK10Qt3DRender15QSphereGeometry17positionAttributeEv@Qt_5 5.6.0
 _ZNK10Qt3DRender15QSphereGeometry17texCoordAttributeEv@Qt_5 5.6.0
 _ZNK10Qt3DRender15QSphereGeometry5ringsEv@Qt_5 5.6.0
 _ZNK10Qt3DRender15QSphereGeometry6radiusEv@Qt_5 5.6.0
 _ZNK10Qt3DRender15QSphereGeometry6slicesEv@Qt_5 5.6.0
 _ZNK10Qt3DRender15QTexture1DArray10metaObjectEv@Qt_5 5.6.0
 _ZNK10Qt3DRender15QTexture2DArray10metaObjectEv@Qt_5 5.6.0
 _ZNK10Qt3DRender15QTextureCubeMap10metaObjectEv@Qt_5 5.6.0
 _ZNK10Qt3DRender16QDispatchCompute10metaObjectEv@Qt_5 5.6.0
 _ZNK10Qt3DRender16QDispatchCompute10workGroupXEv@Qt_5 5.6.0
 _ZNK10Qt3DRender16QDispatchCompute10workGroupYEv@Qt_5 5.6.0
 _ZNK10Qt3DRender16QDispatchCompute10workGroupZEv@Qt_5 5.6.0
 _ZNK10Qt3DRender16QForwardRenderer10clearColorEv@Qt_5 5.6.0
 _ZNK10Qt3DRender16QForwardRenderer10metaObjectEv@Qt_5 5.6.0
 _ZNK10Qt3DRender16QForwardRenderer12viewportRectEv@Qt_5 5.6.0
 _ZNK10Qt3DRender16QForwardRenderer6cameraEv@Qt_5 5.6.0
 _ZNK10Qt3DRender16QItemModelBuffer10metaObjectEv@Qt_5 5.6.0
 _ZNK10Qt3DRender16QItemModelBuffer14attributeNamesEv@Qt_5 5.6.0
 _ZNK10Qt3DRender16QItemModelBuffer15attributeByNameE7QString@Qt_5 5.6.0
 _ZNK10Qt3DRender16QTechniqueFilter10metaObjectEv@Qt_5 5.6.0
 _ZNK10Qt3DRender16QTechniqueFilter10parametersEv@Qt_5 5.6.0
 _ZNK10Qt3DRender16QTechniqueFilter8criteriaEv@Qt_5 5.6.0
 _ZNK10Qt3DRender16QTextureWrapMode10metaObjectEv@Qt_5 5.6.0
 _ZNK10Qt3DRender16QTextureWrapMode1xEv@Qt_5 5.6.0
 _ZNK10Qt3DRender16QTextureWrapMode1yEv@Qt_5 5.6.0
 _ZNK10Qt3DRender16QTextureWrapMode1zEv@Qt_5 5.6.0
 _ZNK10Qt3DRender17QCylinderGeometry10metaObjectEv@Qt_5 5.6.0
 _ZNK10Qt3DRender17QCylinderGeometry14indexAttributeEv@Qt_5 5.6.0
 _ZNK10Qt3DRender17QCylinderGeometry15normalAttributeEv@Qt_5 5.6.0
 _ZNK10Qt3DRender17QCylinderGeometry17positionAttributeEv@Qt_5 5.6.0
 _ZNK10Qt3DRender17QCylinderGeometry17texCoordAttributeEv@Qt_5 5.6.0
 _ZNK10Qt3DRender17QCylinderGeometry5ringsEv@Qt_5 5.6.0
 _ZNK10Qt3DRender17QCylinderGeometry6lengthEv@Qt_5 5.6.0
 _ZNK10Qt3DRender17QCylinderGeometry6radiusEv@Qt_5 5.6.0
 _ZNK10Qt3DRender17QCylinderGeometry6slicesEv@Qt_5 5.6.0
 _ZNK10Qt3DRender17QDirectionalLight10metaObjectEv@Qt_5 5.6.0
 _ZNK10Qt3DRender17QDirectionalLight9directionEv@Qt_5 5.6.0
 _ZNK10Qt3DRender17QGeometryRenderer10baseVertexEv@Qt_5 5.6.0
 _ZNK10Qt3DRender17QGeometryRenderer10metaObjectEv@Qt_5 5.6.0
 _ZNK10Qt3DRender17QGeometryRenderer12baseInstanceEv@Qt_5 5.6.0
 _ZNK10Qt3DRender17QGeometryRenderer12restartIndexEv@Qt_5 5.6.0
 _ZNK10Qt3DRender17QGeometryRenderer13instanceCountEv@Qt_5 5.6.0
 _ZNK10Qt3DRender17QGeometryRenderer13primitiveTypeEv@Qt_5 5.6.0
 _ZNK10Qt3DRender17QGeometryRenderer14primitiveCountEv@Qt_5 5.6.0
 _ZNK10Qt3DRender17QGeometryRenderer15geometryFunctorEv@Qt_5 5.6.0
 _ZNK10Qt3DRender17QGeometryRenderer16primitiveRestartEv@Qt_5 5.6.0
 _ZNK10Qt3DRender17QGeometryRenderer8geometryEv@Qt_5 5.6.0
 _ZNK10Qt3DRender17QParameterMapping10metaObjectEv@Qt_5 5.6.0
 _ZNK10Qt3DRender17QParameterMapping11bindingTypeEv@Qt_5 5.6.0
 _ZNK10Qt3DRender17QParameterMapping13parameterNameEv@Qt_5 5.6.0
 _ZNK10Qt3DRender17QParameterMapping18shaderVariableNameEv@Qt_5 5.6.0
 _ZNK10Qt3DRender17QRenderAttachment10metaObjectEv@Qt_5 5.6.0
 _ZNK10Qt3DRender17QRenderAttachment4faceEv@Qt_5 5.6.0
 _ZNK10Qt3DRender17QRenderAttachment4nameEv@Qt_5 5.6.0
 _ZNK10Qt3DRender17QRenderAttachment4typeEv@Qt_5 5.6.0
 _ZNK10Qt3DRender17QRenderAttachment5layerEv@Qt_5 5.6.0
 _ZNK10Qt3DRender17QRenderAttachment7textureEv@Qt_5 5.6.0
 _ZNK10Qt3DRender17QRenderAttachment8mipLevelEv@Qt_5 5.6.0
 _ZNK10Qt3DRender17QRenderPassFilter10metaObjectEv@Qt_5 5.6.0
 _ZNK10Qt3DRender17QRenderPassFilter10parametersEv@Qt_5 5.6.0
 _ZNK10Qt3DRender17QRenderPassFilter8includesEv@Qt_5 5.6.0
 _ZNK10Qt3DRender17QTextureRectangle10metaObjectEv@Qt_5 5.6.0
 _ZNK10Qt3DRender18QAbstractAttribute10byteOffsetEv@Qt_5 5.6.0
 _ZNK10Qt3DRender18QAbstractAttribute10byteStrideEv@Qt_5 5.6.0
 _ZNK10Qt3DRender18QAbstractAttribute10metaObjectEv@Qt_5 5.6.0
 _ZNK10Qt3DRender18QAbstractAttribute13attributeTypeEv@Qt_5 5.6.0
 _ZNK10Qt3DRender18QAbstractAttribute4nameEv@Qt_5 5.6.0
 _ZNK10Qt3DRender18QAbstractAttribute5countEv@Qt_5 5.6.0
 _ZNK10Qt3DRender18QAbstractAttribute6bufferEv@Qt_5 5.6.0
 _ZNK10Qt3DRender18QAbstractAttribute7divisorEv@Qt_5 5.6.0
 _ZNK10Qt3DRender18QAbstractAttribute8dataSizeEv@Qt_5 5.6.0
 _ZNK10Qt3DRender18QAbstractAttribute8dataTypeEv@Qt_5 5.6.0
 _ZNK10Qt3DRender18QGraphicsApiFilter10extensionsEv@Qt_5 5.6.0
 _ZNK10Qt3DRender18QGraphicsApiFilter10metaObjectEv@Qt_5 5.6.0
 _ZNK10Qt3DRender18QGraphicsApiFilter12majorVersionEv@Qt_5 5.6.0
 _ZNK10Qt3DRender18QGraphicsApiFilter12minorVersionEv@Qt_5 5.6.0
 _ZNK10Qt3DRender18QGraphicsApiFilter3apiEv@Qt_5 5.6.0
 _ZNK10Qt3DRender18QGraphicsApiFilter6vendorEv@Qt_5 5.6.0
 _ZNK10Qt3DRender18QGraphicsApiFilter7profileEv@Qt_5 5.6.0
 _ZNK10Qt3DRender18QRayCastingService15fetchAllResultsEv@Qt_5 5.6.0
 _ZNK10Qt3DRender18QSceneParserPlugin10metaObjectEv@Qt_5 5.6.0
 _ZNK10Qt3DRender18QStencilOpSeparate10metaObjectEv@Qt_5 5.6.0
 _ZNK10Qt3DRender18QStencilOpSeparate11stencilFailEv@Qt_5 5.6.0
 _ZNK10Qt3DRender18QStencilOpSeparate16stencilDepthPassEv@Qt_5 5.6.0
 _ZNK10Qt3DRender18QStencilOpSeparate8faceModeEv@Qt_5 5.6.0
 _ZNK10Qt3DRender18QStencilOpSeparate9depthFailEv@Qt_5 5.6.0
 _ZNK10Qt3DRender19QBlendStateSeparate10metaObjectEv@Qt_5 5.6.0
 _ZNK10Qt3DRender19QDiffuseMapMaterial10metaObjectEv@Qt_5 5.6.0
 _ZNK10Qt3DRender19QDiffuseMapMaterial12textureScaleEv@Qt_5 5.6.0
 _ZNK10Qt3DRender19QDiffuseMapMaterial7ambientEv@Qt_5 5.6.0
 _ZNK10Qt3DRender19QDiffuseMapMaterial7diffuseEv@Qt_5 5.6.0
 _ZNK10Qt3DRender19QDiffuseMapMaterial8specularEv@Qt_5 5.6.0
 _ZNK10Qt3DRender19QDiffuseMapMaterial9shininessEv@Qt_5 5.6.0
 _ZNK10Qt3DRender19QFrameGraphSelector10metaObjectEv@Qt_5 5.6.0
 _ZNK10Qt3DRender19QFrameGraphSelector16selectionFunctorEv@Qt_5 5.6.0
 _ZNK10Qt3DRender19QPhongAlphaMaterial10metaObjectEv@Qt_5 5.6.0
 _ZNK10Qt3DRender19QPhongAlphaMaterial5alphaEv@Qt_5 5.6.0
 _ZNK10Qt3DRender19QPhongAlphaMaterial7ambientEv@Qt_5 5.6.0
 _ZNK10Qt3DRender19QPhongAlphaMaterial7diffuseEv@Qt_5 5.6.0
 _ZNK10Qt3DRender19QPhongAlphaMaterial8specularEv@Qt_5 5.6.0
 _ZNK10Qt3DRender19QPhongAlphaMaterial9shininessEv@Qt_5 5.6.0
 _ZNK10Qt3DRender20QAbstractSceneLoader10metaObjectEv@Qt_5 5.6.0
 _ZNK10Qt3DRender20QAbstractSceneLoader6sourceEv@Qt_5 5.6.0
 _ZNK10Qt3DRender20QAbstractSceneLoader6statusEv@Qt_5 5.6.0
 _ZNK10Qt3DRender20QAbstractSceneParser10metaObjectEv@Qt_5 5.6.0
 _ZNK10Qt3DRender20QAbstractSceneParser12parserStatusEv@Qt_5 5.6.0
 _ZNK10Qt3DRender20QAbstractSceneParser6errorsEv@Qt_5 5.6.0
 _ZNK10Qt3DRender20QBoundingVolumeDebug10metaObjectEv@Qt_5 5.6.0
 _ZNK10Qt3DRender20QBoundingVolumeDebug9recursiveEv@Qt_5 5.6.0
 _ZNK10Qt3DRender20QStencilTestSeparate10metaObjectEv@Qt_5 5.6.0
 _ZNK10Qt3DRender20QStencilTestSeparate3refEv@Qt_5 5.6.0
 _ZNK10Qt3DRender20QStencilTestSeparate4funcEv@Qt_5 5.6.0
 _ZNK10Qt3DRender20QStencilTestSeparate4maskEv@Qt_5 5.6.0
 _ZNK10Qt3DRender20QStencilTestSeparate8faceModeEv@Qt_5 5.6.0
 _ZNK10Qt3DRender20QTextureCubeMapArray10metaObjectEv@Qt_5 5.6.0
 _ZNK10Qt3DRender21QAbstractTextureImage10metaObjectEv@Qt_5 5.6.0
 _ZNK10Qt3DRender21QAbstractTextureImage11cubeMapFaceEv@Qt_5 5.6.0
 _ZNK10Qt3DRender21QAbstractTextureImage11mipmapLevelEv@Qt_5 5.6.0
 _ZNK10Qt3DRender21QAbstractTextureImage5layerEv@Qt_5 5.6.0
 _ZNK10Qt3DRender21QCollisionQueryResult11entitiesHitEv@Qt_5 5.6.0
 _ZNK10Qt3DRender21QCollisionQueryResult6handleEv@Qt_5 5.6.0
 _ZNK10Qt3DRender21QRenderTargetSelector10metaObjectEv@Qt_5 5.6.0
 _ZNK10Qt3DRender21QRenderTargetSelector11drawBuffersEv@Qt_5 5.6.0
 _ZNK10Qt3DRender21QRenderTargetSelector6targetEv@Qt_5 5.6.0
 _ZNK10Qt3DRender21QTexture2DMultisample10metaObjectEv@Qt_5 5.6.0
 _ZNK10Qt3DRender23QPerVertexColorMaterial10metaObjectEv@Qt_5 5.6.0
 _ZNK10Qt3DRender24QAbstractTextureProvider10metaObjectEv@Qt_5 5.6.0
 _ZNK10Qt3DRender24QAbstractTextureProvider13maximumLayersEv@Qt_5 5.6.0
 _ZNK10Qt3DRender24QAbstractTextureProvider13textureImagesEv@Qt_5 5.6.0
 _ZNK10Qt3DRender24QAbstractTextureProvider14comparisonModeEv@Qt_5 5.6.0
 _ZNK10Qt3DRender24QAbstractTextureProvider15generateMipMapsEv@Qt_5 5.6.0
 _ZNK10Qt3DRender24QAbstractTextureProvider17maximumAnisotropyEv@Qt_5 5.6.0
 _ZNK10Qt3DRender24QAbstractTextureProvider18comparisonFunctionEv@Qt_5 5.6.0
 _ZNK10Qt3DRender24QAbstractTextureProvider18minificationFilterEv@Qt_5 5.6.0
 _ZNK10Qt3DRender24QAbstractTextureProvider19magnificationFilterEv@Qt_5 5.6.0
 _ZNK10Qt3DRender24QAbstractTextureProvider5depthEv@Qt_5 5.6.0
 _ZNK10Qt3DRender24QAbstractTextureProvider5widthEv@Qt_5 5.6.0
 _ZNK10Qt3DRender24QAbstractTextureProvider6formatEv@Qt_5 5.6.0
 _ZNK10Qt3DRender24QAbstractTextureProvider6heightEv@Qt_5 5.6.0
 _ZNK10Qt3DRender24QAbstractTextureProvider6statusEv@Qt_5 5.6.0
 _ZNK10Qt3DRender24QAbstractTextureProvider6targetEv@Qt_5 5.6.0
 _ZNK10Qt3DRender24QAbstractTextureProvider8isUniqueEv@Qt_5 5.6.0
 _ZNK10Qt3DRender24QBoundingVolumeSpecifier10metaObjectEv@Qt_5 5.6.0
 _ZNK10Qt3DRender24QBoundingVolumeSpecifier17positionAttributeEv@Qt_5 5.6.0
 _ZNK10Qt3DRender25QNormalDiffuseMapMaterial10metaObjectEv@Qt_5 5.6.0
 _ZNK10Qt3DRender25QNormalDiffuseMapMaterial12textureScaleEv@Qt_5 5.6.0
 _ZNK10Qt3DRender25QNormalDiffuseMapMaterial6normalEv@Qt_5 5.6.0
 _ZNK10Qt3DRender25QNormalDiffuseMapMaterial7ambientEv@Qt_5 5.6.0
 _ZNK10Qt3DRender25QNormalDiffuseMapMaterial7diffuseEv@Qt_5 5.6.0
 _ZNK10Qt3DRender25QNormalDiffuseMapMaterial8specularEv@Qt_5 5.6.0
 _ZNK10Qt3DRender25QNormalDiffuseMapMaterial9shininessEv@Qt_5 5.6.0
 _ZNK10Qt3DRender26QTexture2DMultisampleArray10metaObjectEv@Qt_5 5.6.0
 _ZNK10Qt3DRender27QDiffuseSpecularMapMaterial10metaObjectEv@Qt_5 5.6.0
 _ZNK10Qt3DRender27QDiffuseSpecularMapMaterial12textureScaleEv@Qt_5 5.6.0
 _ZNK10Qt3DRender27QDiffuseSpecularMapMaterial7ambientEv@Qt_5 5.6.0
 _ZNK10Qt3DRender27QDiffuseSpecularMapMaterial7diffuseEv@Qt_5 5.6.0
 _ZNK10Qt3DRender27QDiffuseSpecularMapMaterial8specularEv@Qt_5 5.6.0
 _ZNK10Qt3DRender27QDiffuseSpecularMapMaterial9shininessEv@Qt_5 5.6.0
 _ZNK10Qt3DRender30QNormalDiffuseMapAlphaMaterial10metaObjectEv@Qt_5 5.6.0
 _ZNK10Qt3DRender33QNormalDiffuseSpecularMapMaterial10metaObjectEv@Qt_5 5.6.0
 _ZNK10Qt3DRender33QNormalDiffuseSpecularMapMaterial12textureScaleEv@Qt_5 5.6.0
 _ZNK10Qt3DRender33QNormalDiffuseSpecularMapMaterial6normalEv@Qt_5 5.6.0
 _ZNK10Qt3DRender33QNormalDiffuseSpecularMapMaterial7ambientEv@Qt_5 5.6.0
 _ZNK10Qt3DRender33QNormalDiffuseSpecularMapMaterial7diffuseEv@Qt_5 5.6.0
 _ZNK10Qt3DRender33QNormalDiffuseSpecularMapMaterial8specularEv@Qt_5 5.6.0
 _ZNK10Qt3DRender33QNormalDiffuseSpecularMapMaterial9shininessEv@Qt_5 5.6.0
 _ZNK10Qt3DRender5QMesh10metaObjectEv@Qt_5 5.6.0
 _ZNK10Qt3DRender5QMesh6sourceEv@Qt_5 5.6.0
 _ZNK10Qt3DRender5QMesh7subMeshEv@Qt_5 5.6.0
 _ZNK10Qt3DRender6QLayer10metaObjectEv@Qt_5 5.6.0
 _ZNK10Qt3DRender6QLayer5namesEv@Qt_5 5.6.0
 _ZNK10Qt3DRender6QLight10metaObjectEv@Qt_5 5.6.0
 _ZNK10Qt3DRender6QLight4typeEv@Qt_5 5.6.0
 _ZNK10Qt3DRender6QLight5colorEv@Qt_5 5.6.0
 _ZNK10Qt3DRender6QLight9intensityEv@Qt_5 5.6.0
 (optional=templinst)_ZNK10Qt3DRender6Render12NodeManagers7managerINS0_10AnnotationENS0_16CriterionManagerEEEPT0_v@Qt_5 5.6.0
 (optional=templinst)_ZNK10Qt3DRender6Render12NodeManagers7managerINS0_10CameraLensENS0_13CameraManagerEEEPT0_v@Qt_5 5.6.0
 (optional=templinst)_ZNK10Qt3DRender6Render12NodeManagers7managerINS0_10RenderPassENS0_17RenderPassManagerEEEPT0_v@Qt_5_PRIVATE_API 5.6.0
 (optional=templinst)_ZNK10Qt3DRender6Render12NodeManagers7managerINS0_10ShaderDataENS0_17ShaderDataManagerEEEPT0_v@Qt_5_PRIVATE_API 5.6.0
 (optional=templinst)_ZNK10Qt3DRender6Render12NodeManagers7managerINS0_12ObjectPickerENS0_19ObjectPickerManagerEEEPT0_v@Qt_5_PRIVATE_API 5.6.0
 (optional=templinst)_ZNK10Qt3DRender6Render12NodeManagers7managerINS0_12RenderTargetENS0_19RenderTargetManagerEEEPT0_v@Qt_5 5.6.0
 (optional=templinst)_ZNK10Qt3DRender6Render12NodeManagers7managerINS0_12TextureImageENS0_19TextureImageManagerEEEPT0_v@Qt_5 5.6.0
 (optional=templinst)_ZNK10Qt3DRender6Render12NodeManagers7managerINS0_13SortCriterionENS0_20SortCriterionManagerEEEPT0_v@Qt_5 5.6.0
 (optional=templinst)_ZNK10Qt3DRender6Render12NodeManagers7managerINS0_13UniformBufferENS0_10UBOManagerEEEPT0_v@Qt_5 5.6.0
 (optional=templinst)_ZNK10Qt3DRender6Render12NodeManagers7managerINS0_16GeometryRendererENS0_23GeometryRendererManagerEEEPT0_v@Qt_5_PRIVATE_API 5.6.0
 (optional=templinst)_ZNK10Qt3DRender6Render12NodeManagers7managerINS0_16RenderAttachmentENS0_17AttachmentManagerEEEPT0_v@Qt_5 5.6.0
 (optional=templinst)_ZNK10Qt3DRender6Render12NodeManagers7managerINS0_19BoundingVolumeDebugENS0_26BoundingVolumeDebugManagerEEEPT0_v@Qt_5_PRIVATE_API 5.6.0
 (optional=templinst)_ZNK10Qt3DRender6Render12NodeManagers7managerINS0_5LayerENS0_12LayerManagerEEEPT0_v@Qt_5 5.6.0
 (optional=templinst)_ZNK10Qt3DRender6Render12NodeManagers7managerINS0_5LightENS0_12LightManagerEEEPT0_v@Qt_5_PRIVATE_API 5.6.0
 (optional=templinst)_ZNK10Qt3DRender6Render12NodeManagers7managerINS0_5SceneENS0_12SceneManagerEEEPT0_v@Qt_5 5.6.0
 (optional=templinst)_ZNK10Qt3DRender6Render12NodeManagers7managerINS0_6BufferENS0_13BufferManagerEEEPT0_v@Qt_5_PRIVATE_API 5.6.0
 (optional=templinst)_ZNK10Qt3DRender6Render12NodeManagers7managerINS0_6EffectENS0_13EffectManagerEEEPT0_v@Qt_5 5.6.0
 (optional=templinst)_ZNK10Qt3DRender6Render12NodeManagers7managerINS0_6EntityENS0_13EntityManagerEEEPT0_v@Qt_5_PRIVATE_API 5.6.0
 (optional=templinst)_ZNK10Qt3DRender6Render12NodeManagers7managerINS0_6ShaderENS0_13ShaderManagerEEEPT0_v@Qt_5_PRIVATE_API 5.6.0
 (optional=templinst)_ZNK10Qt3DRender6Render12NodeManagers7managerINS0_7TextureENS0_14TextureManagerEEEPT0_v@Qt_5 5.6.0
 (optional=templinst)_ZNK10Qt3DRender6Render12NodeManagers7managerINS0_8GeometryENS0_15GeometryManagerEEEPT0_v@Qt_5_PRIVATE_API 5.6.0
 (optional=templinst)_ZNK10Qt3DRender6Render12NodeManagers7managerINS0_8MaterialENS0_15MaterialManagerEEEPT0_v@Qt_5_PRIVATE_API 5.6.0
 (optional=templinst)_ZNK10Qt3DRender6Render12NodeManagers7managerINS0_9AttributeENS0_16AttributeManagerEEEPT0_v@Qt_5_PRIVATE_API 5.6.0
 (optional=templinst)_ZNK10Qt3DRender6Render12NodeManagers7managerINS0_9ParameterENS0_16ParameterManagerEEEPT0_v@Qt_5 5.6.0
 (optional=templinst)_ZNK10Qt3DRender6Render12NodeManagers7managerINS0_9TechniqueENS0_16TechniqueManagerEEEPT0_v@Qt_5 5.6.0
 (optional=templinst)_ZNK10Qt3DRender6Render12NodeManagers7managerINS0_9TransformENS0_16TransformManagerEEEPT0_v@Qt_5 5.6.0
 (optional=templinst)_ZNK10Qt3DRender6Render12NodeManagers7managerINS_13QTexImageDataENS0_18TextureDataManagerEEEPT0_v@Qt_5 5.6.0
 (optional=templinst)_ZNK10Qt3DRender6Render12NodeManagers7managerIP10QMatrix4x4NS0_13MatrixManagerEEEPT0_v@Qt_5 5.6.0
 (optional=templinst)_ZNK10Qt3DRender6Render12NodeManagers7managerIP24QOpenGLVertexArrayObjectNS0_10VAOManagerEEEPT0_v@Qt_5 5.6.0
 (optional=templinst)_ZNK10Qt3DRender6Render12NodeManagers7managerIPNS0_14FrameGraphNodeENS0_17FrameGraphManagerEEEPT0_v@Qt_5_PRIVATE_API 5.6.0
 _ZNK10Qt3DRender6Render6Sphere10intersectsERKN8Qt3DCore6QRay3DEP9QVector3D@Qt_5 5.6.0
 _ZNK10Qt3DRender6Render6Sphere11transformedERK10QMatrix4x4@Qt_5 5.6.0
 _ZNK10Qt3DRender6Render6Sphere2idEv@Qt_5 5.6.0
 _ZNK10Qt3DRender6Render6Sphere4typeEv@Qt_5 5.6.0
 _ZNK10Qt3DRender6Render6Sphere6centerEv@Qt_5 5.6.0
 _ZNK10Qt3DRender6Render6Sphere6radiusEv@Qt_5 5.6.0
 _ZNK10Qt3DRender6Render8Renderer11contextInfoEv@Qt_5 5.6.0
 _ZNK10Qt3DRender6Render8Renderer12nodeManagersEv@Qt_5 5.6.0
 _ZNK10Qt3DRender6Render8Renderer14frameGraphRootEv@Qt_5 5.6.0
 _ZNK10Qt3DRender6Render8Renderer19frameAdvanceServiceEv@Qt_5 5.6.0
 _ZNK10Qt3DRender6Render8Renderer20pendingPickingEventsEv@Qt_5 5.6.0
 _ZNK10Qt3DRender6Render8Renderer4timeEv@Qt_5 5.6.0
 _ZNK10Qt3DRender6Render8Renderer9canRenderEv@Qt_5 5.6.0
 _ZNK10Qt3DRender7QBuffer10metaObjectEv@Qt_5 5.6.0
 _ZNK10Qt3DRender7QBuffer13bufferFunctorEv@Qt_5 5.6.0
 _ZNK10Qt3DRender7QBuffer4typeEv@Qt_5 5.6.0
 _ZNK10Qt3DRender7QBuffer5usageEv@Qt_5 5.6.0
 _ZNK10Qt3DRender7QBuffer6isSyncEv@Qt_5 5.6.0
 _ZNK10Qt3DRender7QEffect10metaObjectEv@Qt_5 5.6.0
 _ZNK10Qt3DRender7QEffect10parametersEv@Qt_5 5.6.0
 _ZNK10Qt3DRender7QEffect10techniquesEv@Qt_5 5.6.0
 _ZNK10Qt3DRender7QNoDraw10metaObjectEv@Qt_5 5.6.0
 _ZNK10Qt3DRender7QWindow10frameGraphEv@Qt_5 5.6.0
 _ZNK10Qt3DRender9QCullFace10metaObjectEv@Qt_5 5.6.0
 _ZNK10Qt3DRender9QCullFace4modeEv@Qt_5 5.6.0
 _ZNK10Qt3DRender9QGeometry10attributesEv@Qt_5 5.6.0
 _ZNK10Qt3DRender9QGeometry10metaObjectEv@Qt_5 5.6.0
 _ZNK10Qt3DRender9QGeometry16verticesPerPatchEv@Qt_5 5.6.0
 _ZNK10Qt3DRender9QLighting10metaObjectEv@Qt_5 5.6.0
 _ZNK10Qt3DRender9QMaterial10metaObjectEv@Qt_5 5.6.0
 _ZNK10Qt3DRender9QMaterial10parametersEv@Qt_5 5.6.0
 _ZNK10Qt3DRender9QMaterial13textureValuesEv@Qt_5 5.6.0
 _ZNK10Qt3DRender9QMaterial6effectEv@Qt_5 5.6.0
 _ZNK10Qt3DRender9QStateSet10metaObjectEv@Qt_5 5.6.0
 _ZNK10Qt3DRender9QStateSet12renderStatesEv@Qt_5 5.6.0
 _ZNK10Qt3DRender9QViewport10clearColorEv@Qt_5 5.6.0
 _ZNK10Qt3DRender9QViewport10metaObjectEv@Qt_5 5.6.0
 _ZNK10Qt3DRender9QViewport4rectEv@Qt_5 5.6.0
 _ZTIN10Qt3DRender10QAlphaTestE@Qt_5 5.6.0
 _ZTIN10Qt3DRender10QAttributeE@Qt_5 5.6.0
 _ZTIN10Qt3DRender10QClipPlaneE@Qt_5 5.6.0
 _ZTIN10Qt3DRender10QColorMaskE@Qt_5 5.6.0
 _ZTIN10Qt3DRender10QDepthMaskE@Qt_5 5.6.0
 _ZTIN10Qt3DRender10QDepthTestE@Qt_5 5.6.0
 _ZTIN10Qt3DRender10QDitheringE@Qt_5 5.6.0
 _ZTIN10Qt3DRender10QFrontFaceE@Qt_5 5.6.0
 _ZTIN10Qt3DRender10QParameterE@Qt_5 5.6.0
 _ZTIN10Qt3DRender10QPickEventE@Qt_5 5.6.0
 _ZTIN10Qt3DRender10QPlaneMeshE@Qt_5 5.6.0
 _ZTIN10Qt3DRender10QPointSizeE@Qt_5 5.6.0
 _ZTIN10Qt3DRender10QSpotLightE@Qt_5 5.6.0
 _ZTIN10Qt3DRender10QStencilOpE@Qt_5 5.6.0
 _ZTIN10Qt3DRender10QTechniqueE@Qt_5 5.6.0
 _ZTIN10Qt3DRender10QTexture1DE@Qt_5 5.6.0
 _ZTIN10Qt3DRender10QTexture2DE@Qt_5 5.6.0
 _ZTIN10Qt3DRender10QTexture3DE@Qt_5 5.6.0
 _ZTIN10Qt3DRender10QTorusMeshE@Qt_5 5.6.0
 _ZTIN10Qt3DRender11QAnnotationE@Qt_5 5.6.0
 _ZTIN10Qt3DRender11QBlendStateE@Qt_5 5.6.0
 _ZTIN10Qt3DRender11QCuboidMeshE@Qt_5 5.6.0
 _ZTIN10Qt3DRender11QFrameGraphE@Qt_5 5.6.0
 _ZTIN10Qt3DRender11QPointLightE@Qt_5 5.6.0
 _ZTIN10Qt3DRender11QRenderPassE@Qt_5 5.6.0
 _ZTIN10Qt3DRender11QShaderDataE@Qt_5 5.6.0
 _ZTIN10Qt3DRender11QSortMethodE@Qt_5 5.6.0
 _ZTIN10Qt3DRender11QSphereMeshE@Qt_5 5.6.0
 _ZTIN10Qt3DRender12QClearBufferE@Qt_5 5.6.0
 _ZTIN10Qt3DRender12QLayerFilterE@Qt_5 5.6.0
 _ZTIN10Qt3DRender12QRenderStateE@Qt_5 5.6.0
 _ZTIN10Qt3DRender12QSceneLoaderE@Qt_5 5.6.0
 _ZTIN10Qt3DRender12QScissorTestE@Qt_5 5.6.0
 _ZTIN10Qt3DRender12QStencilMaskE@Qt_5 5.6.0
 _ZTIN10Qt3DRender12QStencilTestE@Qt_5 5.6.0
 _ZTIN10Qt3DRender13QCylinderMeshE@Qt_5 5.6.0
 _ZTIN10Qt3DRender13QObjectPickerE@Qt_5 5.6.0
 _ZTIN10Qt3DRender13QRenderAspectE@Qt_5 5.6.0
 _ZTIN10Qt3DRender13QRenderTargetE@Qt_5 5.6.0
 _ZTIN10Qt3DRender13QSkyboxEntityE@Qt_5 5.6.0
 _ZTIN10Qt3DRender13QTexImageDataE@Qt_5 5.6.0
 _ZTIN10Qt3DRender13QTextureImageE@Qt_5 5.6.0
 _ZTIN10Qt3DRender14QAlphaCoverageE@Qt_5 5.6.0
 _ZTIN10Qt3DRender14QBlendEquationE@Qt_5 5.6.0
 _ZTIN10Qt3DRender14QBufferFunctorE@Qt_5 5.6.0
 _ZTIN10Qt3DRender14QBufferPrivateE@Qt_5 5.6.0
 _ZTIN10Qt3DRender14QGoochMaterialE@Qt_5 5.6.0
 _ZTIN10Qt3DRender14QPhongMaterialE@Qt_5 5.6.0
 _ZTIN10Qt3DRender14QPlaneGeometryE@Qt_5 5.6.0
 _ZTIN10Qt3DRender14QPolygonOffsetE@Qt_5 5.6.0
 _ZTIN10Qt3DRender14QShaderProgramE@Qt_5 5.6.0
 _ZTIN10Qt3DRender14QSortCriterionE@Qt_5 5.6.0
 _ZTIN10Qt3DRender14QTextureBufferE@Qt_5 5.6.0
 _ZTIN10Qt3DRender14QTorusGeometryE@Qt_5 5.6.0
 _ZTIN10Qt3DRender15QAbstractBufferE@Qt_5 5.6.0
 _ZTIN10Qt3DRender15QBoundingSphereE@Qt_5 5.6.0
 _ZTIN10Qt3DRender15QBoundingVolumeE@Qt_5 5.6.0
 _ZTIN10Qt3DRender15QCameraSelectorE@Qt_5 5.6.0
 _ZTIN10Qt3DRender15QCuboidGeometryE@Qt_5 5.6.0
 _ZTIN10Qt3DRender15QFrameGraphNodeE@Qt_5 5.6.0
 _ZTIN10Qt3DRender15QFrustumCullingE@Qt_5 5.6.0
 _ZTIN10Qt3DRender15QSphereGeometryE@Qt_5 5.6.0
 _ZTIN10Qt3DRender15QTexture1DArrayE@Qt_5 5.6.0
 _ZTIN10Qt3DRender15QTexture2DArrayE@Qt_5 5.6.0
 _ZTIN10Qt3DRender15QTextureCubeMapE@Qt_5 5.6.0
 _ZTIN10Qt3DRender16QAbstractFunctorE@Qt_5 5.6.0
 _ZTIN10Qt3DRender16QDispatchComputeE@Qt_5 5.6.0
 _ZTIN10Qt3DRender16QForwardRendererE@Qt_5 5.6.0
 _ZTIN10Qt3DRender16QGeometryFunctorE@Qt_5 5.6.0
 _ZTIN10Qt3DRender16QItemModelBufferE@Qt_5 5.6.0
 _ZTIN10Qt3DRender16QTechniqueFilterE@Qt_5 5.6.0
 _ZTIN10Qt3DRender16QTextureWrapModeE@Qt_5 5.6.0
 _ZTIN10Qt3DRender17QAttributePrivateE@Qt_5 5.6.0
 _ZTIN10Qt3DRender17QCylinderGeometryE@Qt_5 5.6.0
 _ZTIN10Qt3DRender17QDirectionalLightE@Qt_5 5.6.0
 _ZTIN10Qt3DRender17QGeometryRendererE@Qt_5 5.6.0
 _ZTIN10Qt3DRender17QParameterMappingE@Qt_5 5.6.0
 _ZTIN10Qt3DRender17QParameterPrivateE@Qt_5 5.6.0
 _ZTIN10Qt3DRender17QRenderAttachmentE@Qt_5 5.6.0
 _ZTIN10Qt3DRender17QRenderPassFilterE@Qt_5 5.6.0
 _ZTIN10Qt3DRender17QTextureRectangleE@Qt_5 5.6.0
 _ZTIN10Qt3DRender18QAbstractAttributeE@Qt_5 5.6.0
 _ZTIN10Qt3DRender18QGraphicsApiFilterE@Qt_5 5.6.0
 _ZTIN10Qt3DRender18QRayCastingServiceE@Qt_5 5.6.0
 _ZTIN10Qt3DRender18QSceneParserPluginE@Qt_5 5.6.0
 _ZTIN10Qt3DRender18QShaderDataPrivateE@Qt_5 5.6.0
 _ZTIN10Qt3DRender18QStencilOpSeparateE@Qt_5 5.6.0
 _ZTIN10Qt3DRender19QBlendStateSeparateE@Qt_5 5.6.0
 _ZTIN10Qt3DRender19QDiffuseMapMaterialE@Qt_5 5.6.0
 _ZTIN10Qt3DRender19QFrameGraphSelectorE@Qt_5 5.6.0
 _ZTIN10Qt3DRender19QPhongAlphaMaterialE@Qt_5 5.6.0
 _ZTIN10Qt3DRender19QRenderStatePrivateE@Qt_5 5.6.0
 _ZTIN10Qt3DRender19QTextureDataFunctorE@Qt_5 5.6.0
 _ZTIN10Qt3DRender20QAbstractSceneLoaderE@Qt_5 5.6.0
 _ZTIN10Qt3DRender20QAbstractSceneParserE@Qt_5 5.6.0
 _ZTIN10Qt3DRender20QBoundingVolumeDebugE@Qt_5 5.6.0
 _ZTIN10Qt3DRender20QStencilTestSeparateE@Qt_5 5.6.0
 _ZTIN10Qt3DRender20QTextureCubeMapArrayE@Qt_5 5.6.0
 _ZTIN10Qt3DRender21QAbstractTextureImageE@Qt_5 5.6.0
 _ZTIN10Qt3DRender21QRenderTargetSelectorE@Qt_5 5.6.0
 _ZTIN10Qt3DRender21QTexture2DMultisampleE@Qt_5 5.6.0
 _ZTIN10Qt3DRender22QAbstractBufferPrivateE@Qt_5 5.6.0
 _ZTIN10Qt3DRender23PropertyReaderInterfaceE@Qt_5 5.6.0
 _ZTIN10Qt3DRender23QBoundingVolumeProviderE@Qt_5 5.6.0
 _ZTIN10Qt3DRender23QPerVertexColorMaterialE@Qt_5 5.6.0
 _ZTIN10Qt3DRender24QAbstractTextureProviderE@Qt_5 5.6.0
 _ZTIN10Qt3DRender24QBoundingVolumeSpecifierE@Qt_5 5.6.0
 _ZTIN10Qt3DRender25QAbstractAttributePrivateE@Qt_5 5.6.0
 _ZTIN10Qt3DRender25QNormalDiffuseMapMaterialE@Qt_5 5.6.0
 _ZTIN10Qt3DRender26QTexture2DMultisampleArrayE@Qt_5 5.6.0
 _ZTIN10Qt3DRender27QDiffuseSpecularMapMaterialE@Qt_5 5.6.0
 _ZTIN10Qt3DRender28QAbstractTextureImagePrivateE@Qt_5 5.6.0
 _ZTIN10Qt3DRender30QAbstractCollisionQueryServiceE@Qt_5 5.6.0
 _ZTIN10Qt3DRender30QNormalDiffuseMapAlphaMaterialE@Qt_5 5.6.0
 _ZTIN10Qt3DRender33QNormalDiffuseSpecularMapMaterialE@Qt_5 5.6.0
 _ZTIN10Qt3DRender5QMeshE@Qt_5 5.6.0
 _ZTIN10Qt3DRender6QLayerE@Qt_5 5.6.0
 _ZTIN10Qt3DRender6QLightE@Qt_5 5.6.0
 _ZTIN10Qt3DRender6Render15FrameCleanupJobE@Qt_5 5.6.0
 _ZTIN10Qt3DRender6Render16AbstractRendererE@Qt_5 5.6.0
 _ZTIN10Qt3DRender6Render19FramePreparationJobE@Qt_5 5.6.0
 _ZTIN10Qt3DRender6Render23UpdateBoundingVolumeJobE@Qt_5 5.6.0
 _ZTIN10Qt3DRender6Render23UpdateWorldTransformJobE@Qt_5 5.6.0
 _ZTIN10Qt3DRender6Render26CalculateBoundingVolumeJobE@Qt_5 5.6.0
 _ZTIN10Qt3DRender6Render6SphereE@Qt_5 5.6.0
 _ZTIN10Qt3DRender6Render8RendererE@Qt_5 5.6.0
 _ZTIN10Qt3DRender7QBufferE@Qt_5 5.6.0
 _ZTIN10Qt3DRender7QEffectE@Qt_5 5.6.0
 _ZTIN10Qt3DRender7QNoDrawE@Qt_5 5.6.0
 _ZTIN10Qt3DRender7QWindowE@Qt_5 5.6.0
 _ZTIN10Qt3DRender9QCullFaceE@Qt_5 5.6.0
 _ZTIN10Qt3DRender9QGeometryE@Qt_5 5.6.0
 _ZTIN10Qt3DRender9QLightingE@Qt_5 5.6.0
 _ZTIN10Qt3DRender9QMaterialE@Qt_5 5.6.0
 _ZTIN10Qt3DRender9QStateSetE@Qt_5 5.6.0
 _ZTIN10Qt3DRender9QViewportE@Qt_5 5.6.0
 _ZTIN8Qt3DCore14QEntityPrivateE@Qt_5 5.6.0
 _ZTIN8Qt3DCore17QComponentPrivateE@Qt_5 5.6.0
 _ZTIN8Qt3DCore19QBackendNodeFunctorE@Qt_5 5.6.0
 _ZTIN8Qt3DCore28QAbstractFrameAdvanceServiceE@Qt_5 5.6.0
 _ZTSN10Qt3DRender10QAlphaTestE@Qt_5 5.6.0
 _ZTSN10Qt3DRender10QAttributeE@Qt_5 5.6.0
 _ZTSN10Qt3DRender10QClipPlaneE@Qt_5 5.6.0
 _ZTSN10Qt3DRender10QColorMaskE@Qt_5 5.6.0
 _ZTSN10Qt3DRender10QDepthMaskE@Qt_5 5.6.0
 _ZTSN10Qt3DRender10QDepthTestE@Qt_5 5.6.0
 _ZTSN10Qt3DRender10QDitheringE@Qt_5 5.6.0
 _ZTSN10Qt3DRender10QFrontFaceE@Qt_5 5.6.0
 _ZTSN10Qt3DRender10QParameterE@Qt_5 5.6.0
 _ZTSN10Qt3DRender10QPickEventE@Qt_5 5.6.0
 _ZTSN10Qt3DRender10QPlaneMeshE@Qt_5 5.6.0
 _ZTSN10Qt3DRender10QPointSizeE@Qt_5 5.6.0
 _ZTSN10Qt3DRender10QSpotLightE@Qt_5 5.6.0
 _ZTSN10Qt3DRender10QStencilOpE@Qt_5 5.6.0
 _ZTSN10Qt3DRender10QTechniqueE@Qt_5 5.6.0
 _ZTSN10Qt3DRender10QTexture1DE@Qt_5 5.6.0
 _ZTSN10Qt3DRender10QTexture2DE@Qt_5 5.6.0
 _ZTSN10Qt3DRender10QTexture3DE@Qt_5 5.6.0
 _ZTSN10Qt3DRender10QTorusMeshE@Qt_5 5.6.0
 _ZTSN10Qt3DRender11QAnnotationE@Qt_5 5.6.0
 _ZTSN10Qt3DRender11QBlendStateE@Qt_5 5.6.0
 _ZTSN10Qt3DRender11QCuboidMeshE@Qt_5 5.6.0
 _ZTSN10Qt3DRender11QFrameGraphE@Qt_5 5.6.0
 _ZTSN10Qt3DRender11QPointLightE@Qt_5 5.6.0
 _ZTSN10Qt3DRender11QRenderPassE@Qt_5 5.6.0
 _ZTSN10Qt3DRender11QShaderDataE@Qt_5 5.6.0
 _ZTSN10Qt3DRender11QSortMethodE@Qt_5 5.6.0
 _ZTSN10Qt3DRender11QSphereMeshE@Qt_5 5.6.0
 _ZTSN10Qt3DRender12QClearBufferE@Qt_5 5.6.0
 _ZTSN10Qt3DRender12QLayerFilterE@Qt_5 5.6.0
 _ZTSN10Qt3DRender12QRenderStateE@Qt_5 5.6.0
 _ZTSN10Qt3DRender12QSceneLoaderE@Qt_5 5.6.0
 _ZTSN10Qt3DRender12QScissorTestE@Qt_5 5.6.0
 _ZTSN10Qt3DRender12QStencilMaskE@Qt_5 5.6.0
 _ZTSN10Qt3DRender12QStencilTestE@Qt_5 5.6.0
 _ZTSN10Qt3DRender13QCylinderMeshE@Qt_5 5.6.0
 _ZTSN10Qt3DRender13QObjectPickerE@Qt_5 5.6.0
 _ZTSN10Qt3DRender13QRenderAspectE@Qt_5 5.6.0
 _ZTSN10Qt3DRender13QRenderTargetE@Qt_5 5.6.0
 _ZTSN10Qt3DRender13QSkyboxEntityE@Qt_5 5.6.0
 _ZTSN10Qt3DRender13QTexImageDataE@Qt_5 5.6.0
 _ZTSN10Qt3DRender13QTextureImageE@Qt_5 5.6.0
 _ZTSN10Qt3DRender14QAlphaCoverageE@Qt_5 5.6.0
 _ZTSN10Qt3DRender14QBlendEquationE@Qt_5 5.6.0
 _ZTSN10Qt3DRender14QBufferFunctorE@Qt_5 5.6.0
 _ZTSN10Qt3DRender14QBufferPrivateE@Qt_5 5.6.0
 _ZTSN10Qt3DRender14QGoochMaterialE@Qt_5 5.6.0
 _ZTSN10Qt3DRender14QPhongMaterialE@Qt_5 5.6.0
 _ZTSN10Qt3DRender14QPlaneGeometryE@Qt_5 5.6.0
 _ZTSN10Qt3DRender14QPolygonOffsetE@Qt_5 5.6.0
 _ZTSN10Qt3DRender14QShaderProgramE@Qt_5 5.6.0
 _ZTSN10Qt3DRender14QSortCriterionE@Qt_5 5.6.0
 _ZTSN10Qt3DRender14QTextureBufferE@Qt_5 5.6.0
 _ZTSN10Qt3DRender14QTorusGeometryE@Qt_5 5.6.0
 _ZTSN10Qt3DRender15QAbstractBufferE@Qt_5 5.6.0
 _ZTSN10Qt3DRender15QBoundingSphereE@Qt_5 5.6.0
 _ZTSN10Qt3DRender15QBoundingVolumeE@Qt_5 5.6.0
 _ZTSN10Qt3DRender15QCameraSelectorE@Qt_5 5.6.0
 _ZTSN10Qt3DRender15QCuboidGeometryE@Qt_5 5.6.0
 _ZTSN10Qt3DRender15QFrameGraphNodeE@Qt_5 5.6.0
 _ZTSN10Qt3DRender15QFrustumCullingE@Qt_5 5.6.0
 _ZTSN10Qt3DRender15QSphereGeometryE@Qt_5 5.6.0
 _ZTSN10Qt3DRender15QTexture1DArrayE@Qt_5 5.6.0
 _ZTSN10Qt3DRender15QTexture2DArrayE@Qt_5 5.6.0
 _ZTSN10Qt3DRender15QTextureCubeMapE@Qt_5 5.6.0
 _ZTSN10Qt3DRender16QAbstractFunctorE@Qt_5 5.6.0
 _ZTSN10Qt3DRender16QDispatchComputeE@Qt_5 5.6.0
 _ZTSN10Qt3DRender16QForwardRendererE@Qt_5 5.6.0
 _ZTSN10Qt3DRender16QGeometryFunctorE@Qt_5 5.6.0
 _ZTSN10Qt3DRender16QItemModelBufferE@Qt_5 5.6.0
 _ZTSN10Qt3DRender16QTechniqueFilterE@Qt_5 5.6.0
 _ZTSN10Qt3DRender16QTextureWrapModeE@Qt_5 5.6.0
 _ZTSN10Qt3DRender17QAttributePrivateE@Qt_5 5.6.0
 _ZTSN10Qt3DRender17QCylinderGeometryE@Qt_5 5.6.0
 _ZTSN10Qt3DRender17QDirectionalLightE@Qt_5 5.6.0
 _ZTSN10Qt3DRender17QGeometryRendererE@Qt_5 5.6.0
 _ZTSN10Qt3DRender17QParameterMappingE@Qt_5 5.6.0
 _ZTSN10Qt3DRender17QParameterPrivateE@Qt_5 5.6.0
 _ZTSN10Qt3DRender17QRenderAttachmentE@Qt_5 5.6.0
 _ZTSN10Qt3DRender17QRenderPassFilterE@Qt_5 5.6.0
 _ZTSN10Qt3DRender17QTextureRectangleE@Qt_5 5.6.0
 _ZTSN10Qt3DRender18QAbstractAttributeE@Qt_5 5.6.0
 _ZTSN10Qt3DRender18QGraphicsApiFilterE@Qt_5 5.6.0
 _ZTSN10Qt3DRender18QRayCastingServiceE@Qt_5 5.6.0
 _ZTSN10Qt3DRender18QSceneParserPluginE@Qt_5 5.6.0
 _ZTSN10Qt3DRender18QShaderDataPrivateE@Qt_5 5.6.0
 _ZTSN10Qt3DRender18QStencilOpSeparateE@Qt_5 5.6.0
 _ZTSN10Qt3DRender19QBlendStateSeparateE@Qt_5 5.6.0
 _ZTSN10Qt3DRender19QDiffuseMapMaterialE@Qt_5 5.6.0
 _ZTSN10Qt3DRender19QFrameGraphSelectorE@Qt_5 5.6.0
 _ZTSN10Qt3DRender19QPhongAlphaMaterialE@Qt_5 5.6.0
 _ZTSN10Qt3DRender19QRenderStatePrivateE@Qt_5 5.6.0
 _ZTSN10Qt3DRender19QTextureDataFunctorE@Qt_5 5.6.0
 _ZTSN10Qt3DRender20QAbstractSceneLoaderE@Qt_5 5.6.0
 _ZTSN10Qt3DRender20QAbstractSceneParserE@Qt_5 5.6.0
 _ZTSN10Qt3DRender20QBoundingVolumeDebugE@Qt_5 5.6.0
 _ZTSN10Qt3DRender20QStencilTestSeparateE@Qt_5 5.6.0
 _ZTSN10Qt3DRender20QTextureCubeMapArrayE@Qt_5 5.6.0
 _ZTSN10Qt3DRender21QAbstractTextureImageE@Qt_5 5.6.0
 _ZTSN10Qt3DRender21QRenderTargetSelectorE@Qt_5 5.6.0
 _ZTSN10Qt3DRender21QTexture2DMultisampleE@Qt_5 5.6.0
 _ZTSN10Qt3DRender22QAbstractBufferPrivateE@Qt_5 5.6.0
 _ZTSN10Qt3DRender23PropertyReaderInterfaceE@Qt_5 5.6.0
 _ZTSN10Qt3DRender23QBoundingVolumeProviderE@Qt_5 5.6.0
 _ZTSN10Qt3DRender23QPerVertexColorMaterialE@Qt_5 5.6.0
 _ZTSN10Qt3DRender24QAbstractTextureProviderE@Qt_5 5.6.0
 _ZTSN10Qt3DRender24QBoundingVolumeSpecifierE@Qt_5 5.6.0
 _ZTSN10Qt3DRender25QAbstractAttributePrivateE@Qt_5 5.6.0
 _ZTSN10Qt3DRender25QNormalDiffuseMapMaterialE@Qt_5 5.6.0
 _ZTSN10Qt3DRender26QTexture2DMultisampleArrayE@Qt_5 5.6.0
 _ZTSN10Qt3DRender27QDiffuseSpecularMapMaterialE@Qt_5 5.6.0
 _ZTSN10Qt3DRender28QAbstractTextureImagePrivateE@Qt_5 5.6.0
 _ZTSN10Qt3DRender30QAbstractCollisionQueryServiceE@Qt_5 5.6.0
 _ZTSN10Qt3DRender30QNormalDiffuseMapAlphaMaterialE@Qt_5 5.6.0
 _ZTSN10Qt3DRender33QNormalDiffuseSpecularMapMaterialE@Qt_5 5.6.0
 _ZTSN10Qt3DRender5QMeshE@Qt_5 5.6.0
 _ZTSN10Qt3DRender6QLayerE@Qt_5 5.6.0
 _ZTSN10Qt3DRender6QLightE@Qt_5 5.6.0
 _ZTSN10Qt3DRender6Render15FrameCleanupJobE@Qt_5 5.6.0
 _ZTSN10Qt3DRender6Render16AbstractRendererE@Qt_5 5.6.0
 _ZTSN10Qt3DRender6Render19FramePreparationJobE@Qt_5 5.6.0
 _ZTSN10Qt3DRender6Render23UpdateBoundingVolumeJobE@Qt_5 5.6.0
 _ZTSN10Qt3DRender6Render23UpdateWorldTransformJobE@Qt_5 5.6.0
 _ZTSN10Qt3DRender6Render26CalculateBoundingVolumeJobE@Qt_5 5.6.0
 _ZTSN10Qt3DRender6Render6SphereE@Qt_5 5.6.0
 _ZTSN10Qt3DRender6Render8RendererE@Qt_5 5.6.0
 _ZTSN10Qt3DRender7QBufferE@Qt_5 5.6.0
 _ZTSN10Qt3DRender7QEffectE@Qt_5 5.6.0
 _ZTSN10Qt3DRender7QNoDrawE@Qt_5 5.6.0
 _ZTSN10Qt3DRender7QWindowE@Qt_5 5.6.0
 _ZTSN10Qt3DRender9QCullFaceE@Qt_5 5.6.0
 _ZTSN10Qt3DRender9QGeometryE@Qt_5 5.6.0
 _ZTSN10Qt3DRender9QLightingE@Qt_5 5.6.0
 _ZTSN10Qt3DRender9QMaterialE@Qt_5 5.6.0
 _ZTSN10Qt3DRender9QStateSetE@Qt_5 5.6.0
 _ZTSN10Qt3DRender9QViewportE@Qt_5 5.6.0
 _ZTSN8Qt3DCore14QEntityPrivateE@Qt_5 5.6.0
 _ZTSN8Qt3DCore17QComponentPrivateE@Qt_5 5.6.0
 _ZTSN8Qt3DCore19QBackendNodeFunctorE@Qt_5 5.6.0
 _ZTSN8Qt3DCore28QAbstractFrameAdvanceServiceE@Qt_5 5.6.0
 _ZTVN10Qt3DRender10QAlphaTestE@Qt_5 5.6.0
 _ZTVN10Qt3DRender10QAttributeE@Qt_5 5.6.0
 _ZTVN10Qt3DRender10QClipPlaneE@Qt_5 5.6.0
 _ZTVN10Qt3DRender10QColorMaskE@Qt_5 5.6.0
 _ZTVN10Qt3DRender10QDepthMaskE@Qt_5 5.6.0
 _ZTVN10Qt3DRender10QDepthTestE@Qt_5 5.6.0
 _ZTVN10Qt3DRender10QDitheringE@Qt_5 5.6.0
 _ZTVN10Qt3DRender10QFrontFaceE@Qt_5 5.6.0
 _ZTVN10Qt3DRender10QParameterE@Qt_5 5.6.0
 _ZTVN10Qt3DRender10QPickEventE@Qt_5 5.6.0
 _ZTVN10Qt3DRender10QPlaneMeshE@Qt_5 5.6.0
 _ZTVN10Qt3DRender10QPointSizeE@Qt_5 5.6.0
 _ZTVN10Qt3DRender10QSpotLightE@Qt_5 5.6.0
 _ZTVN10Qt3DRender10QStencilOpE@Qt_5 5.6.0
 _ZTVN10Qt3DRender10QTechniqueE@Qt_5 5.6.0
 _ZTVN10Qt3DRender10QTexture1DE@Qt_5 5.6.0
 _ZTVN10Qt3DRender10QTexture2DE@Qt_5 5.6.0
 _ZTVN10Qt3DRender10QTexture3DE@Qt_5 5.6.0
 _ZTVN10Qt3DRender10QTorusMeshE@Qt_5 5.6.0
 _ZTVN10Qt3DRender11QAnnotationE@Qt_5 5.6.0
 _ZTVN10Qt3DRender11QBlendStateE@Qt_5 5.6.0
 _ZTVN10Qt3DRender11QCuboidMeshE@Qt_5 5.6.0
 _ZTVN10Qt3DRender11QFrameGraphE@Qt_5 5.6.0
 _ZTVN10Qt3DRender11QPointLightE@Qt_5 5.6.0
 _ZTVN10Qt3DRender11QRenderPassE@Qt_5 5.6.0
 _ZTVN10Qt3DRender11QShaderDataE@Qt_5 5.6.0
 _ZTVN10Qt3DRender11QSortMethodE@Qt_5 5.6.0
 _ZTVN10Qt3DRender11QSphereMeshE@Qt_5 5.6.0
 _ZTVN10Qt3DRender12QClearBufferE@Qt_5 5.6.0
 _ZTVN10Qt3DRender12QLayerFilterE@Qt_5 5.6.0
 _ZTVN10Qt3DRender12QRenderStateE@Qt_5 5.6.0
 _ZTVN10Qt3DRender12QSceneLoaderE@Qt_5 5.6.0
 _ZTVN10Qt3DRender12QScissorTestE@Qt_5 5.6.0
 _ZTVN10Qt3DRender12QStencilMaskE@Qt_5 5.6.0
 _ZTVN10Qt3DRender12QStencilTestE@Qt_5 5.6.0
 _ZTVN10Qt3DRender13QCylinderMeshE@Qt_5 5.6.0
 _ZTVN10Qt3DRender13QObjectPickerE@Qt_5 5.6.0
 _ZTVN10Qt3DRender13QRenderAspectE@Qt_5 5.6.0
 _ZTVN10Qt3DRender13QRenderTargetE@Qt_5 5.6.0
 _ZTVN10Qt3DRender13QSkyboxEntityE@Qt_5 5.6.0
 _ZTVN10Qt3DRender13QTexImageDataE@Qt_5 5.6.0
 _ZTVN10Qt3DRender13QTextureImageE@Qt_5 5.6.0
 _ZTVN10Qt3DRender14QAlphaCoverageE@Qt_5 5.6.0
 _ZTVN10Qt3DRender14QBlendEquationE@Qt_5 5.6.0
 _ZTVN10Qt3DRender14QBufferFunctorE@Qt_5 5.6.0
 _ZTVN10Qt3DRender14QBufferPrivateE@Qt_5 5.6.0
 _ZTVN10Qt3DRender14QGoochMaterialE@Qt_5 5.6.0
 _ZTVN10Qt3DRender14QPhongMaterialE@Qt_5 5.6.0
 _ZTVN10Qt3DRender14QPlaneGeometryE@Qt_5 5.6.0
 _ZTVN10Qt3DRender14QPolygonOffsetE@Qt_5 5.6.0
 _ZTVN10Qt3DRender14QShaderProgramE@Qt_5 5.6.0
 _ZTVN10Qt3DRender14QSortCriterionE@Qt_5 5.6.0
 _ZTVN10Qt3DRender14QTextureBufferE@Qt_5 5.6.0
 _ZTVN10Qt3DRender14QTorusGeometryE@Qt_5 5.6.0
 _ZTVN10Qt3DRender15QAbstractBufferE@Qt_5 5.6.0
 _ZTVN10Qt3DRender15QBoundingSphereE@Qt_5 5.6.0
 _ZTVN10Qt3DRender15QBoundingVolumeE@Qt_5 5.6.0
 _ZTVN10Qt3DRender15QCameraSelectorE@Qt_5 5.6.0
 _ZTVN10Qt3DRender15QCuboidGeometryE@Qt_5 5.6.0
 _ZTVN10Qt3DRender15QFrameGraphNodeE@Qt_5 5.6.0
 _ZTVN10Qt3DRender15QFrustumCullingE@Qt_5 5.6.0
 _ZTVN10Qt3DRender15QSphereGeometryE@Qt_5 5.6.0
 _ZTVN10Qt3DRender15QTexture1DArrayE@Qt_5 5.6.0
 _ZTVN10Qt3DRender15QTexture2DArrayE@Qt_5 5.6.0
 _ZTVN10Qt3DRender15QTextureCubeMapE@Qt_5 5.6.0
 _ZTVN10Qt3DRender16QAbstractFunctorE@Qt_5 5.6.0
 _ZTVN10Qt3DRender16QDispatchComputeE@Qt_5 5.6.0
 _ZTVN10Qt3DRender16QForwardRendererE@Qt_5 5.6.0
 _ZTVN10Qt3DRender16QGeometryFunctorE@Qt_5 5.6.0
 _ZTVN10Qt3DRender16QItemModelBufferE@Qt_5 5.6.0
 _ZTVN10Qt3DRender16QTechniqueFilterE@Qt_5 5.6.0
 _ZTVN10Qt3DRender16QTextureWrapModeE@Qt_5 5.6.0
 _ZTVN10Qt3DRender17QAttributePrivateE@Qt_5 5.6.0
 _ZTVN10Qt3DRender17QCylinderGeometryE@Qt_5 5.6.0
 _ZTVN10Qt3DRender17QDirectionalLightE@Qt_5 5.6.0
 _ZTVN10Qt3DRender17QGeometryRendererE@Qt_5 5.6.0
 _ZTVN10Qt3DRender17QParameterMappingE@Qt_5 5.6.0
 _ZTVN10Qt3DRender17QParameterPrivateE@Qt_5 5.6.0
 _ZTVN10Qt3DRender17QRenderAttachmentE@Qt_5 5.6.0
 _ZTVN10Qt3DRender17QRenderPassFilterE@Qt_5 5.6.0
 _ZTVN10Qt3DRender17QTextureRectangleE@Qt_5 5.6.0
 _ZTVN10Qt3DRender18QAbstractAttributeE@Qt_5 5.6.0
 _ZTVN10Qt3DRender18QGraphicsApiFilterE@Qt_5 5.6.0
 _ZTVN10Qt3DRender18QRayCastingServiceE@Qt_5 5.6.0
 _ZTVN10Qt3DRender18QSceneParserPluginE@Qt_5 5.6.0
 _ZTVN10Qt3DRender18QShaderDataPrivateE@Qt_5 5.6.0
 _ZTVN10Qt3DRender18QStencilOpSeparateE@Qt_5 5.6.0
 _ZTVN10Qt3DRender19QBlendStateSeparateE@Qt_5 5.6.0
 _ZTVN10Qt3DRender19QDiffuseMapMaterialE@Qt_5 5.6.0
 _ZTVN10Qt3DRender19QFrameGraphSelectorE@Qt_5 5.6.0
 _ZTVN10Qt3DRender19QPhongAlphaMaterialE@Qt_5 5.6.0
 _ZTVN10Qt3DRender19QRenderStatePrivateE@Qt_5 5.6.0
 _ZTVN10Qt3DRender19QTextureDataFunctorE@Qt_5 5.6.0
 _ZTVN10Qt3DRender20QAbstractSceneLoaderE@Qt_5 5.6.0
 _ZTVN10Qt3DRender20QAbstractSceneParserE@Qt_5 5.6.0
 _ZTVN10Qt3DRender20QBoundingVolumeDebugE@Qt_5 5.6.0
 _ZTVN10Qt3DRender20QStencilTestSeparateE@Qt_5 5.6.0
 _ZTVN10Qt3DRender20QTextureCubeMapArrayE@Qt_5 5.6.0
 _ZTVN10Qt3DRender21QAbstractTextureImageE@Qt_5 5.6.0
 _ZTVN10Qt3DRender21QRenderTargetSelectorE@Qt_5 5.6.0
 _ZTVN10Qt3DRender21QTexture2DMultisampleE@Qt_5 5.6.0
 _ZTVN10Qt3DRender22QAbstractBufferPrivateE@Qt_5 5.6.0
 _ZTVN10Qt3DRender23QBoundingVolumeProviderE@Qt_5 5.6.0
 _ZTVN10Qt3DRender23QPerVertexColorMaterialE@Qt_5 5.6.0
 _ZTVN10Qt3DRender24QAbstractTextureProviderE@Qt_5 5.6.0
 _ZTVN10Qt3DRender24QBoundingVolumeSpecifierE@Qt_5 5.6.0
 _ZTVN10Qt3DRender25QAbstractAttributePrivateE@Qt_5 5.6.0
 _ZTVN10Qt3DRender25QNormalDiffuseMapMaterialE@Qt_5 5.6.0
 _ZTVN10Qt3DRender26QTexture2DMultisampleArrayE@Qt_5 5.6.0
 _ZTVN10Qt3DRender27QDiffuseSpecularMapMaterialE@Qt_5 5.6.0
 _ZTVN10Qt3DRender28QAbstractTextureImagePrivateE@Qt_5 5.6.0
 _ZTVN10Qt3DRender30QAbstractCollisionQueryServiceE@Qt_5 5.6.0
 _ZTVN10Qt3DRender30QNormalDiffuseMapAlphaMaterialE@Qt_5 5.6.0
 _ZTVN10Qt3DRender33QNormalDiffuseSpecularMapMaterialE@Qt_5 5.6.0
 _ZTVN10Qt3DRender5QMeshE@Qt_5 5.6.0
 _ZTVN10Qt3DRender6QLayerE@Qt_5 5.6.0
 _ZTVN10Qt3DRender6QLightE@Qt_5 5.6.0
 _ZTVN10Qt3DRender6Render15FrameCleanupJobE@Qt_5 5.6.0
 _ZTVN10Qt3DRender6Render19FramePreparationJobE@Qt_5 5.6.0
 _ZTVN10Qt3DRender6Render23UpdateBoundingVolumeJobE@Qt_5 5.6.0
 _ZTVN10Qt3DRender6Render23UpdateWorldTransformJobE@Qt_5 5.6.0
 _ZTVN10Qt3DRender6Render26CalculateBoundingVolumeJobE@Qt_5 5.6.0
 _ZTVN10Qt3DRender6Render6SphereE@Qt_5 5.6.0
 _ZTVN10Qt3DRender6Render8RendererE@Qt_5 5.6.0
 _ZTVN10Qt3DRender7QBufferE@Qt_5 5.6.0
 _ZTVN10Qt3DRender7QEffectE@Qt_5 5.6.0
 _ZTVN10Qt3DRender7QNoDrawE@Qt_5 5.6.0
 _ZTVN10Qt3DRender7QWindowE@Qt_5 5.6.0
 _ZTVN10Qt3DRender9QCullFaceE@Qt_5 5.6.0
 _ZTVN10Qt3DRender9QGeometryE@Qt_5 5.6.0
 _ZTVN10Qt3DRender9QLightingE@Qt_5 5.6.0
 _ZTVN10Qt3DRender9QMaterialE@Qt_5 5.6.0
 _ZTVN10Qt3DRender9QStateSetE@Qt_5 5.6.0
 _ZTVN10Qt3DRender9QViewportE@Qt_5 5.6.0
 _ZTVN8Qt3DCore14QEntityPrivateE@Qt_5 5.6.0
 _ZTVN8Qt3DCore17QComponentPrivateE@Qt_5 5.6.0
 _ZTVN8Qt3DCore28QAbstractFrameAdvanceServiceE@Qt_5 5.6.0
 (c++)"non-virtual thunk to Qt3DRender::QWindow::~QWindow()@Qt_5" 5.6.0
