# SymbolsHelper-Confirmed: 5.5.0 amd64
libQt53DRenderer.so.5 libqt53drenderer5 #MINVER#
 _ZN4Qt3D10QAlphaTest11funcChangedEv@Base 5.5.0
 _ZN4Qt3D10QAlphaTest11qt_metacallEN11QMetaObject4CallEiPPv@Base 5.5.0
 _ZN4Qt3D10QAlphaTest11qt_metacastEPKc@Base 5.5.0
 _ZN4Qt3D10QAlphaTest12clampChangedEv@Base 5.5.0
 _ZN4Qt3D10QAlphaTest16staticMetaObjectE@Base 5.5.0
 _ZN4Qt3D10QAlphaTest4copyEPKNS_5QNodeE@Base 5.5.0
 _ZN4Qt3D10QAlphaTest7setFuncENS0_9AlphaFuncE@Base 5.5.0
 _ZN4Qt3D10QAlphaTest8setClampEf@Base 5.5.0
 _ZN4Qt3D10QAlphaTestC1EPNS_5QNodeE@Base 5.5.0
 _ZN4Qt3D10QAlphaTestC2EPNS_5QNodeE@Base 5.5.0
 _ZN4Qt3D10QColorMask10redChangedEv@Base 5.5.0
 _ZN4Qt3D10QColorMask11blueChangedEv@Base 5.5.0
 _ZN4Qt3D10QColorMask11qt_metacallEN11QMetaObject4CallEiPPv@Base 5.5.0
 _ZN4Qt3D10QColorMask11qt_metacastEPKc@Base 5.5.0
 _ZN4Qt3D10QColorMask12alphaChangedEv@Base 5.5.0
 _ZN4Qt3D10QColorMask12greenChangedEv@Base 5.5.0
 _ZN4Qt3D10QColorMask16staticMetaObjectE@Base 5.5.0
 _ZN4Qt3D10QColorMask4copyEPKNS_5QNodeE@Base 5.5.0
 _ZN4Qt3D10QColorMask6setRedEb@Base 5.5.0
 _ZN4Qt3D10QColorMask7setBlueEb@Base 5.5.0
 _ZN4Qt3D10QColorMask8setAlphaEb@Base 5.5.0
 _ZN4Qt3D10QColorMask8setGreenEb@Base 5.5.0
 _ZN4Qt3D10QColorMaskC1EPNS_5QNodeE@Base 5.5.0
 _ZN4Qt3D10QColorMaskC2EPNS_5QNodeE@Base 5.5.0
 _ZN4Qt3D10QColorMaskD0Ev@Base 5.5.0
 _ZN4Qt3D10QColorMaskD1Ev@Base 5.5.0
 _ZN4Qt3D10QColorMaskD2Ev@Base 5.5.0
 _ZN4Qt3D10QDepthMask11maskChangedEv@Base 5.5.0
 _ZN4Qt3D10QDepthMask11qt_metacallEN11QMetaObject4CallEiPPv@Base 5.5.0
 _ZN4Qt3D10QDepthMask11qt_metacastEPKc@Base 5.5.0
 _ZN4Qt3D10QDepthMask16staticMetaObjectE@Base 5.5.0
 _ZN4Qt3D10QDepthMask4copyEPKNS_5QNodeE@Base 5.5.0
 _ZN4Qt3D10QDepthMask7setMaskEb@Base 5.5.0
 _ZN4Qt3D10QDepthMaskC1EPNS_5QNodeE@Base 5.5.0
 _ZN4Qt3D10QDepthMaskC2EPNS_5QNodeE@Base 5.5.0
 _ZN4Qt3D10QDepthTest11funcChangedEv@Base 5.5.0
 _ZN4Qt3D10QDepthTest11qt_metacallEN11QMetaObject4CallEiPPv@Base 5.5.0
 _ZN4Qt3D10QDepthTest11qt_metacastEPKc@Base 5.5.0
 _ZN4Qt3D10QDepthTest16staticMetaObjectE@Base 5.5.0
 _ZN4Qt3D10QDepthTest4copyEPKNS_5QNodeE@Base 5.5.0
 _ZN4Qt3D10QDepthTest7setFuncENS0_9DepthFuncE@Base 5.5.0
 _ZN4Qt3D10QDepthTestC1EPNS_5QNodeE@Base 5.5.0
 _ZN4Qt3D10QDepthTestC2EPNS_5QNodeE@Base 5.5.0
 _ZN4Qt3D10QDithering11qt_metacallEN11QMetaObject4CallEiPPv@Base 5.5.0
 _ZN4Qt3D10QDithering11qt_metacastEPKc@Base 5.5.0
 _ZN4Qt3D10QDithering16staticMetaObjectE@Base 5.5.0
 _ZN4Qt3D10QDitheringC1EPNS_5QNodeE@Base 5.5.0
 _ZN4Qt3D10QDitheringC2EPNS_5QNodeE@Base 5.5.0
 _ZN4Qt3D10QFrontFace11qt_metacallEN11QMetaObject4CallEiPPv@Base 5.5.0
 _ZN4Qt3D10QFrontFace11qt_metacastEPKc@Base 5.5.0
 _ZN4Qt3D10QFrontFace12setDirectionENS0_7FaceDirE@Base 5.5.0
 _ZN4Qt3D10QFrontFace16directionChangedEv@Base 5.5.0
 _ZN4Qt3D10QFrontFace16staticMetaObjectE@Base 5.5.0
 _ZN4Qt3D10QFrontFace4copyEPKNS_5QNodeE@Base 5.5.0
 _ZN4Qt3D10QFrontFaceC1EPNS_5QNodeE@Base 5.5.0
 _ZN4Qt3D10QFrontFaceC2EPNS_5QNodeE@Base 5.5.0
 _ZN4Qt3D10QParameter11nameChangedEv@Base 5.5.0
 _ZN4Qt3D10QParameter11qt_metacallEN11QMetaObject4CallEiPPv@Base 5.5.0
 _ZN4Qt3D10QParameter11qt_metacastEPKc@Base 5.5.0
 _ZN4Qt3D10QParameter12valueChangedEv@Base 5.5.0
 _ZN4Qt3D10QParameter16staticMetaObjectE@Base 5.5.0
 _ZN4Qt3D10QParameter4copyEPKNS_5QNodeE@Base 5.5.0
 _ZN4Qt3D10QParameter7setNameERK7QString@Base 5.5.0
 _ZN4Qt3D10QParameter8setValueERK8QVariant@Base 5.5.0
 _ZN4Qt3D10QParameterC1EPNS_5QNodeE@Base 5.5.0
 _ZN4Qt3D10QParameterC1ERK7QStringPNS_24QAbstractTextureProviderEPNS_5QNodeE@Base 5.5.0
 _ZN4Qt3D10QParameterC1ERK7QStringRK8QVariantPNS_5QNodeE@Base 5.5.0
 _ZN4Qt3D10QParameterC1ERNS_17QParameterPrivateEPNS_5QNodeE@Base 5.5.0
 _ZN4Qt3D10QParameterC2EPNS_5QNodeE@Base 5.5.0
 _ZN4Qt3D10QParameterC2ERK7QStringPNS_24QAbstractTextureProviderEPNS_5QNodeE@Base 5.5.0
 _ZN4Qt3D10QParameterC2ERK7QStringRK8QVariantPNS_5QNodeE@Base 5.5.0
 _ZN4Qt3D10QParameterC2ERNS_17QParameterPrivateEPNS_5QNodeE@Base 5.5.0
 _ZN4Qt3D10QPlaneMesh11qt_metacallEN11QMetaObject4CallEiPPv@Base 5.5.0
 _ZN4Qt3D10QPlaneMesh11qt_metacastEPKc@Base 5.5.0
 _ZN4Qt3D10QPlaneMesh12widthChangedEv@Base 5.5.0
 _ZN4Qt3D10QPlaneMesh13heightChangedEv@Base 5.5.0
 _ZN4Qt3D10QPlaneMesh16staticMetaObjectE@Base 5.5.0
 _ZN4Qt3D10QPlaneMesh17setMeshResolutionERK5QSize@Base 5.5.0
 _ZN4Qt3D10QPlaneMesh21meshResolutionChangedEv@Base 5.5.0
 _ZN4Qt3D10QPlaneMesh4copyEPKNS_5QNodeE@Base 5.5.0
 _ZN4Qt3D10QPlaneMesh8setWidthEf@Base 5.5.0
 _ZN4Qt3D10QPlaneMesh9setHeightEf@Base 5.5.0
 _ZN4Qt3D10QPlaneMeshC1EPNS_5QNodeE@Base 5.5.0
 _ZN4Qt3D10QPlaneMeshC1ERNS_17QPlaneMeshPrivateEPNS_5QNodeE@Base 5.5.0
 _ZN4Qt3D10QPlaneMeshC2EPNS_5QNodeE@Base 5.5.0
 _ZN4Qt3D10QPlaneMeshC2ERNS_17QPlaneMeshPrivateEPNS_5QNodeE@Base 5.5.0
 _ZN4Qt3D10QSpotLight11qt_metacallEN11QMetaObject4CallEiPPv@Base 5.5.0
 _ZN4Qt3D10QSpotLight11qt_metacastEPKc@Base 5.5.0
 _ZN4Qt3D10QSpotLight12setDirectionERK9QVector3D@Base 5.5.0
 _ZN4Qt3D10QSpotLight14setCutOffAngleEf@Base 5.5.0
 _ZN4Qt3D10QSpotLight16directionChangedEv@Base 5.5.0
 _ZN4Qt3D10QSpotLight16staticMetaObjectE@Base 5.5.0
 _ZN4Qt3D10QSpotLight18cutOffAngleChangedEv@Base 5.5.0
 _ZN4Qt3D10QSpotLight4copyEPKNS_5QNodeE@Base 5.5.0
 _ZN4Qt3D10QSpotLightC1EPNS_5QNodeE@Base 5.5.0
 _ZN4Qt3D10QSpotLightC1ERNS_17QSpotLightPrivateEPNS_5QNodeE@Base 5.5.0
 _ZN4Qt3D10QSpotLightC2EPNS_5QNodeE@Base 5.5.0
 _ZN4Qt3D10QSpotLightC2ERNS_17QSpotLightPrivateEPNS_5QNodeE@Base 5.5.0
 _ZN4Qt3D10QTechnique10removePassEPNS_11QRenderPassE@Base 5.5.0
 _ZN4Qt3D10QTechnique11qt_metacallEN11QMetaObject4CallEiPPv@Base 5.5.0
 _ZN4Qt3D10QTechnique11qt_metacastEPKc@Base 5.5.0
 _ZN4Qt3D10QTechnique12addParameterEPNS_10QParameterE@Base 5.5.0
 _ZN4Qt3D10QTechnique12openGLFilterEv@Base 5.5.0
 _ZN4Qt3D10QTechnique13addAnnotationEPNS_11QAnnotationE@Base 5.5.0
 _ZN4Qt3D10QTechnique15removeParameterEPNS_10QParameterE@Base 5.5.0
 _ZN4Qt3D10QTechnique16removeAnnotationEPNS_11QAnnotationE@Base 5.5.0
 _ZN4Qt3D10QTechnique16staticMetaObjectE@Base 5.5.0
 _ZN4Qt3D10QTechnique4copyEPKNS_5QNodeE@Base 5.5.0
 _ZN4Qt3D10QTechnique7addPassEPNS_11QRenderPassE@Base 5.5.0
 _ZN4Qt3D10QTechniqueC1EPNS_5QNodeE@Base 5.5.0
 _ZN4Qt3D10QTechniqueC1ERNS_17QTechniquePrivateEPNS_5QNodeE@Base 5.5.0
 _ZN4Qt3D10QTechniqueC2EPNS_5QNodeE@Base 5.5.0
 _ZN4Qt3D10QTechniqueC2ERNS_17QTechniquePrivateEPNS_5QNodeE@Base 5.5.0
 _ZN4Qt3D10QTexture1D11qt_metacallEN11QMetaObject4CallEiPPv@Base 5.5.0
 _ZN4Qt3D10QTexture1D11qt_metacastEPKc@Base 5.5.0
 _ZN4Qt3D10QTexture1D16staticMetaObjectE@Base 5.5.0
 _ZN4Qt3D10QTexture1DC1EPNS_5QNodeE@Base 5.5.0
 _ZN4Qt3D10QTexture1DC2EPNS_5QNodeE@Base 5.5.0
 _ZN4Qt3D10QTexture1DD0Ev@Base 5.5.0
 _ZN4Qt3D10QTexture1DD1Ev@Base 5.5.0
 _ZN4Qt3D10QTexture1DD2Ev@Base 5.5.0
 _ZN4Qt3D10QTexture2D11qt_metacallEN11QMetaObject4CallEiPPv@Base 5.5.0
 _ZN4Qt3D10QTexture2D11qt_metacastEPKc@Base 5.5.0
 _ZN4Qt3D10QTexture2D16staticMetaObjectE@Base 5.5.0
 _ZN4Qt3D10QTexture2DC1EPNS_5QNodeE@Base 5.5.0
 _ZN4Qt3D10QTexture2DC2EPNS_5QNodeE@Base 5.5.0
 _ZN4Qt3D10QTexture2DD0Ev@Base 5.5.0
 _ZN4Qt3D10QTexture2DD1Ev@Base 5.5.0
 _ZN4Qt3D10QTexture2DD2Ev@Base 5.5.0
 _ZN4Qt3D10QTexture3D11qt_metacallEN11QMetaObject4CallEiPPv@Base 5.5.0
 _ZN4Qt3D10QTexture3D11qt_metacastEPKc@Base 5.5.0
 _ZN4Qt3D10QTexture3D16staticMetaObjectE@Base 5.5.0
 _ZN4Qt3D10QTexture3DC1EPNS_5QNodeE@Base 5.5.0
 _ZN4Qt3D10QTexture3DC2EPNS_5QNodeE@Base 5.5.0
 _ZN4Qt3D10QTexture3DD0Ev@Base 5.5.0
 _ZN4Qt3D10QTexture3DD1Ev@Base 5.5.0
 _ZN4Qt3D10QTexture3DD2Ev@Base 5.5.0
 _ZN4Qt3D10QTorusMesh11qt_metacallEN11QMetaObject4CallEiPPv@Base 5.5.0
 _ZN4Qt3D10QTorusMesh11qt_metacastEPKc@Base 5.5.0
 _ZN4Qt3D10QTorusMesh12ringsChangedEv@Base 5.5.0
 _ZN4Qt3D10QTorusMesh13radiusChangedEv@Base 5.5.0
 _ZN4Qt3D10QTorusMesh13slicesChangedEv@Base 5.5.0
 _ZN4Qt3D10QTorusMesh14setMinorRadiusEf@Base 5.5.0
 _ZN4Qt3D10QTorusMesh16staticMetaObjectE@Base 5.5.0
 _ZN4Qt3D10QTorusMesh18minorRadiusChangedEv@Base 5.5.0
 _ZN4Qt3D10QTorusMesh4copyEPKNS_5QNodeE@Base 5.5.0
 _ZN4Qt3D10QTorusMesh8setRingsEi@Base 5.5.0
 _ZN4Qt3D10QTorusMesh9setRadiusEf@Base 5.5.0
 _ZN4Qt3D10QTorusMesh9setSlicesEi@Base 5.5.0
 _ZN4Qt3D10QTorusMeshC1EPNS_5QNodeE@Base 5.5.0
 _ZN4Qt3D10QTorusMeshC2EPNS_5QNodeE@Base 5.5.0
 _ZN4Qt3D11QAnnotation11nameChangedEv@Base 5.5.0
 _ZN4Qt3D11QAnnotation11qt_metacallEN11QMetaObject4CallEiPPv@Base 5.5.0
 _ZN4Qt3D11QAnnotation11qt_metacastEPKc@Base 5.5.0
 _ZN4Qt3D11QAnnotation12valueChangedEv@Base 5.5.0
 _ZN4Qt3D11QAnnotation16staticMetaObjectE@Base 5.5.0
 _ZN4Qt3D11QAnnotation4copyEPKNS_5QNodeE@Base 5.5.0
 _ZN4Qt3D11QAnnotation7setNameERK7QString@Base 5.5.0
 _ZN4Qt3D11QAnnotation8setValueERK8QVariant@Base 5.5.0
 _ZN4Qt3D11QAnnotationC1EPNS_5QNodeE@Base 5.5.0
 _ZN4Qt3D11QAnnotationC2EPNS_5QNodeE@Base 5.5.0
 _ZN4Qt3D11QBlendState11qt_metacallEN11QMetaObject4CallEiPPv@Base 5.5.0
 _ZN4Qt3D11QBlendState11qt_metacastEPKc@Base 5.5.0
 _ZN4Qt3D11QBlendState11setDstAlphaENS0_8BlendingE@Base 5.5.0
 _ZN4Qt3D11QBlendState11setSrcAlphaENS0_8BlendingE@Base 5.5.0
 _ZN4Qt3D11QBlendState13dstRGBChangedEv@Base 5.5.0
 _ZN4Qt3D11QBlendState13srcRGBChangedEv@Base 5.5.0
 _ZN4Qt3D11QBlendState15dstAlphaChangedEv@Base 5.5.0
 _ZN4Qt3D11QBlendState15srcAlphaChangedEv@Base 5.5.0
 _ZN4Qt3D11QBlendState16staticMetaObjectE@Base 5.5.0
 _ZN4Qt3D11QBlendState4copyEPKNS_5QNodeE@Base 5.5.0
 _ZN4Qt3D11QBlendState9setDstRGBENS0_8BlendingE@Base 5.5.0
 _ZN4Qt3D11QBlendState9setSrcRGBENS0_8BlendingE@Base 5.5.0
 _ZN4Qt3D11QBlendStateC1ENS_12QRenderState4TypeEPNS_5QNodeE@Base 5.5.0
 _ZN4Qt3D11QBlendStateC1EPNS_5QNodeE@Base 5.5.0
 _ZN4Qt3D11QBlendStateC2ENS_12QRenderState4TypeEPNS_5QNodeE@Base 5.5.0
 _ZN4Qt3D11QBlendStateC2EPNS_5QNodeE@Base 5.5.0
 _ZN4Qt3D11QCuboidMesh10setXExtentEf@Base 5.5.0
 _ZN4Qt3D11QCuboidMesh10setYExtentEf@Base 5.5.0
 _ZN4Qt3D11QCuboidMesh10setZExtentEf@Base 5.5.0
 _ZN4Qt3D11QCuboidMesh11qt_metacallEN11QMetaObject4CallEiPPv@Base 5.5.0
 _ZN4Qt3D11QCuboidMesh11qt_metacastEPKc@Base 5.5.0
 _ZN4Qt3D11QCuboidMesh14xExtentChangedEv@Base 5.5.0
 _ZN4Qt3D11QCuboidMesh14yExtentChangedEv@Base 5.5.0
 _ZN4Qt3D11QCuboidMesh14zExtentChangedEv@Base 5.5.0
 _ZN4Qt3D11QCuboidMesh16staticMetaObjectE@Base 5.5.0
 _ZN4Qt3D11QCuboidMesh19setXYMeshResolutionERK5QSize@Base 5.5.0
 _ZN4Qt3D11QCuboidMesh19setXZMeshResolutionERK5QSize@Base 5.5.0
 _ZN4Qt3D11QCuboidMesh19setYZMeshResolutionERK5QSize@Base 5.5.0
 _ZN4Qt3D11QCuboidMesh23xyMeshResolutionChangedEv@Base 5.5.0
 _ZN4Qt3D11QCuboidMesh23xzMeshResolutionChangedEv@Base 5.5.0
 _ZN4Qt3D11QCuboidMesh23yzMeshResolutionChangedEv@Base 5.5.0
 _ZN4Qt3D11QCuboidMesh4copyEPKNS_5QNodeE@Base 5.5.0
 _ZN4Qt3D11QCuboidMeshC1EPNS_5QNodeE@Base 5.5.0
 _ZN4Qt3D11QCuboidMeshC1ERNS_18QCuboidMeshPrivateEPNS_5QNodeE@Base 5.5.0
 _ZN4Qt3D11QCuboidMeshC2EPNS_5QNodeE@Base 5.5.0
 _ZN4Qt3D11QCuboidMeshC2ERNS_18QCuboidMeshPrivateEPNS_5QNodeE@Base 5.5.0
 _ZN4Qt3D11QFrameGraph11qt_metacallEN11QMetaObject4CallEiPPv@Base 5.5.0
 _ZN4Qt3D11QFrameGraph11qt_metacastEPKc@Base 5.5.0
 _ZN4Qt3D11QFrameGraph16staticMetaObjectE@Base 5.5.0
 _ZN4Qt3D11QFrameGraph19setActiveFrameGraphEPNS_15QFrameGraphNodeE@Base 5.5.0
 _ZN4Qt3D11QFrameGraph23activeFrameGraphChangedEv@Base 5.5.0
 _ZN4Qt3D11QFrameGraph4copyEPKNS_5QNodeE@Base 5.5.0
 _ZN4Qt3D11QFrameGraphC1EPNS_5QNodeE@Base 5.5.0
 _ZN4Qt3D11QFrameGraphC1ERNS_18QFrameGraphPrivateEPNS_5QNodeE@Base 5.5.0
 _ZN4Qt3D11QFrameGraphC2EPNS_5QNodeE@Base 5.5.0
 _ZN4Qt3D11QFrameGraphC2ERNS_18QFrameGraphPrivateEPNS_5QNodeE@Base 5.5.0
 _ZN4Qt3D11QPointLight11qt_metacallEN11QMetaObject4CallEiPPv@Base 5.5.0
 _ZN4Qt3D11QPointLight11qt_metacastEPKc@Base 5.5.0
 _ZN4Qt3D11QPointLight16staticMetaObjectE@Base 5.5.0
 _ZN4Qt3D11QPointLightC1EPNS_5QNodeE@Base 5.5.0
 _ZN4Qt3D11QPointLightC1ERNS_18QPointLightPrivateEPNS_5QNodeE@Base 5.5.0
 _ZN4Qt3D11QPointLightC2EPNS_5QNodeE@Base 5.5.0
 _ZN4Qt3D11QPointLightC2ERNS_18QPointLightPrivateEPNS_5QNodeE@Base 5.5.0
 _ZN4Qt3D11QRenderPass10addBindingEPNS_17QParameterMappingE@Base 5.5.0
 _ZN4Qt3D11QRenderPass11qt_metacallEN11QMetaObject4CallEiPPv@Base 5.5.0
 _ZN4Qt3D11QRenderPass11qt_metacastEPKc@Base 5.5.0
 _ZN4Qt3D11QRenderPass12addParameterEPNS_10QParameterE@Base 5.5.0
 _ZN4Qt3D11QRenderPass13addAnnotationEPNS_11QAnnotationE@Base 5.5.0
 _ZN4Qt3D11QRenderPass13removeBindingEPNS_17QParameterMappingE@Base 5.5.0
 _ZN4Qt3D11QRenderPass14addRenderStateEPNS_12QRenderStateE@Base 5.5.0
 _ZN4Qt3D11QRenderPass15removeParameterEPNS_10QParameterE@Base 5.5.0
 _ZN4Qt3D11QRenderPass16removeAnnotationEPNS_11QAnnotationE@Base 5.5.0
 _ZN4Qt3D11QRenderPass16setShaderProgramEPNS_14QShaderProgramE@Base 5.5.0
 _ZN4Qt3D11QRenderPass16staticMetaObjectE@Base 5.5.0
 _ZN4Qt3D11QRenderPass17removeRenderStateEPNS_12QRenderStateE@Base 5.5.0
 _ZN4Qt3D11QRenderPass20shaderProgramChangedEv@Base 5.5.0
 _ZN4Qt3D11QRenderPass4copyEPKNS_5QNodeE@Base 5.5.0
 _ZN4Qt3D11QRenderPassC1EPNS_5QNodeE@Base 5.5.0
 _ZN4Qt3D11QRenderPassC1ERNS_18QRenderPassPrivateEPNS_5QNodeE@Base 5.5.0
 _ZN4Qt3D11QRenderPassC2EPNS_5QNodeE@Base 5.5.0
 _ZN4Qt3D11QRenderPassC2ERNS_18QRenderPassPrivateEPNS_5QNodeE@Base 5.5.0
 _ZN4Qt3D11QShaderData11qt_metacallEN11QMetaObject4CallEiPPv@Base 5.5.0
 _ZN4Qt3D11QShaderData11qt_metacastEPKc@Base 5.5.0
 _ZN4Qt3D11QShaderData16staticMetaObjectE@Base 5.5.0
 _ZN4Qt3D11QShaderData4copyEPKNS_5QNodeE@Base 5.5.0
 _ZN4Qt3D11QShaderDataC1EPNS_5QNodeE@Base 5.5.0
 _ZN4Qt3D11QShaderDataC1ERNS_18QShaderDataPrivateEPNS_5QNodeE@Base 5.5.0
 _ZN4Qt3D11QShaderDataC2EPNS_5QNodeE@Base 5.5.0
 _ZN4Qt3D11QShaderDataC2ERNS_18QShaderDataPrivateEPNS_5QNodeE@Base 5.5.0
 _ZN4Qt3D11QSortMethod11qt_metacallEN11QMetaObject4CallEiPPv@Base 5.5.0
 _ZN4Qt3D11QSortMethod11qt_metacastEPKc@Base 5.5.0
 _ZN4Qt3D11QSortMethod12addCriterionEPNS_14QSortCriterionE@Base 5.5.0
 _ZN4Qt3D11QSortMethod15removeCriterionEPNS_14QSortCriterionE@Base 5.5.0
 _ZN4Qt3D11QSortMethod16staticMetaObjectE@Base 5.5.0
 _ZN4Qt3D11QSortMethod4copyEPKNS_5QNodeE@Base 5.5.0
 _ZN4Qt3D11QSortMethodC1EPNS_5QNodeE@Base 5.5.0
 _ZN4Qt3D11QSortMethodC1ERNS_18QSortMethodPrivateEPNS_5QNodeE@Base 5.5.0
 _ZN4Qt3D11QSortMethodC2EPNS_5QNodeE@Base 5.5.0
 _ZN4Qt3D11QSortMethodC2ERNS_18QSortMethodPrivateEPNS_5QNodeE@Base 5.5.0
 _ZN4Qt3D11QSphereMesh11qt_metacallEN11QMetaObject4CallEiPPv@Base 5.5.0
 _ZN4Qt3D11QSphereMesh11qt_metacastEPKc@Base 5.5.0
 _ZN4Qt3D11QSphereMesh12ringsChangedEv@Base 5.5.0
 _ZN4Qt3D11QSphereMesh13radiusChangedEv@Base 5.5.0
 _ZN4Qt3D11QSphereMesh13slicesChangedEv@Base 5.5.0
 _ZN4Qt3D11QSphereMesh16staticMetaObjectE@Base 5.5.0
 _ZN4Qt3D11QSphereMesh19setGenerateTangentsEb@Base 5.5.0
 _ZN4Qt3D11QSphereMesh23generateTangentsChangedEv@Base 5.5.0
 _ZN4Qt3D11QSphereMesh4copyEPKNS_5QNodeE@Base 5.5.0
 _ZN4Qt3D11QSphereMesh8setRingsEi@Base 5.5.0
 _ZN4Qt3D11QSphereMesh9setRadiusEf@Base 5.5.0
 _ZN4Qt3D11QSphereMesh9setSlicesEi@Base 5.5.0
 _ZN4Qt3D11QSphereMeshC1EPNS_5QNodeE@Base 5.5.0
 _ZN4Qt3D11QSphereMeshC2EPNS_5QNodeE@Base 5.5.0
 _ZN4Qt3D12QClearBuffer10setBuffersENS0_10BufferTypeE@Base 5.5.0
 _ZN4Qt3D12QClearBuffer11qt_metacallEN11QMetaObject4CallEiPPv@Base 5.5.0
 _ZN4Qt3D12QClearBuffer11qt_metacastEPKc@Base 5.5.0
 _ZN4Qt3D12QClearBuffer14buffersChangedEv@Base 5.5.0
 _ZN4Qt3D12QClearBuffer16staticMetaObjectE@Base 5.5.0
 _ZN4Qt3D12QClearBuffer4copyEPKNS_5QNodeE@Base 5.5.0
 _ZN4Qt3D12QClearBufferC1EPNS_5QNodeE@Base 5.5.0
 _ZN4Qt3D12QClearBufferC1ERNS_19QClearBufferPrivateEPNS_5QNodeE@Base 5.5.0
 _ZN4Qt3D12QClearBufferC2EPNS_5QNodeE@Base 5.5.0
 _ZN4Qt3D12QClearBufferC2ERNS_19QClearBufferPrivateEPNS_5QNodeE@Base 5.5.0
 _ZN4Qt3D12QLayerFilter11qt_metacallEN11QMetaObject4CallEiPPv@Base 5.5.0
 _ZN4Qt3D12QLayerFilter11qt_metacastEPKc@Base 5.5.0
 _ZN4Qt3D12QLayerFilter13layersChangedEv@Base 5.5.0
 _ZN4Qt3D12QLayerFilter16staticMetaObjectE@Base 5.5.0
 _ZN4Qt3D12QLayerFilter4copyEPKNS_5QNodeE@Base 5.5.0
 _ZN4Qt3D12QLayerFilter9setLayersERK11QStringList@Base 5.5.0
 _ZN4Qt3D12QLayerFilterC1EPNS_5QNodeE@Base 5.5.0
 _ZN4Qt3D12QLayerFilterC1ERNS_19QLayerFilterPrivateEPNS_5QNodeE@Base 5.5.0
 _ZN4Qt3D12QLayerFilterC2EPNS_5QNodeE@Base 5.5.0
 _ZN4Qt3D12QLayerFilterC2ERNS_19QLayerFilterPrivateEPNS_5QNodeE@Base 5.5.0
 _ZN4Qt3D12QMeshPrivateC1Ev@Base 5.5.0
 _ZN4Qt3D12QMeshPrivateC2Ev@Base 5.5.0
 (optional=templinst)_ZN4Qt3D12QNodeVisitor16traverseChildrenINS0_21MemberFunctionFunctorINS_13QRenderAspectEPNS_5QNodeEEES6_EEvRT_RT0_@Base 5.5.0
 (optional=templinst)_ZN4Qt3D12QNodeVisitor9visitNodeINS0_21MemberFunctionFunctorINS_13QRenderAspectEPNS_5QNodeEEES6_EEvS5_RT_RT0_@Base 5.5.0
 _ZN4Qt3D12QRenderState11qt_metacallEN11QMetaObject4CallEiPPv@Base 5.5.0
 _ZN4Qt3D12QRenderState11qt_metacastEPKc@Base 5.5.0
 _ZN4Qt3D12QRenderState16staticMetaObjectE@Base 5.5.0
 _ZN4Qt3D12QRenderStateC1ERNS_19QRenderStatePrivateEPNS_5QNodeE@Base 5.5.0
 _ZN4Qt3D12QRenderStateC2ERNS_19QRenderStatePrivateEPNS_5QNodeE@Base 5.5.0
 _ZN4Qt3D12QSceneLoader11qt_metacallEN11QMetaObject4CallEiPPv@Base 5.5.0
 _ZN4Qt3D12QSceneLoader11qt_metacastEPKc@Base 5.5.0
 _ZN4Qt3D12QSceneLoader16sceneChangeEventERK14QSharedPointerINS_12QSceneChangeEE@Base 5.5.0
 _ZN4Qt3D12QSceneLoader16staticMetaObjectE@Base 5.5.0
 _ZN4Qt3D12QSceneLoaderC1EPNS_5QNodeE@Base 5.5.0
 _ZN4Qt3D12QSceneLoaderC2EPNS_5QNodeE@Base 5.5.0
 _ZN4Qt3D12QScissorTest11leftChangedEv@Base 5.5.0
 _ZN4Qt3D12QScissorTest11qt_metacallEN11QMetaObject4CallEiPPv@Base 5.5.0
 _ZN4Qt3D12QScissorTest11qt_metacastEPKc@Base 5.5.0
 _ZN4Qt3D12QScissorTest12widthChangedEv@Base 5.5.0
 _ZN4Qt3D12QScissorTest13bottomChangedEv@Base 5.5.0
 _ZN4Qt3D12QScissorTest13heightChangedEv@Base 5.5.0
 _ZN4Qt3D12QScissorTest16staticMetaObjectE@Base 5.5.0
 _ZN4Qt3D12QScissorTest4copyEPKNS_5QNodeE@Base 5.5.0
 _ZN4Qt3D12QScissorTest7setLeftEi@Base 5.5.0
 _ZN4Qt3D12QScissorTest8setWidthEi@Base 5.5.0
 _ZN4Qt3D12QScissorTest9setBottomEi@Base 5.5.0
 _ZN4Qt3D12QScissorTest9setHeightEi@Base 5.5.0
 _ZN4Qt3D12QScissorTestC1EPNS_5QNodeE@Base 5.5.0
 _ZN4Qt3D12QScissorTestC2EPNS_5QNodeE@Base 5.5.0
 _ZN4Qt3D12QStencilTest11funcChangedEv@Base 5.5.0
 _ZN4Qt3D12QStencilTest11maskChangedEv@Base 5.5.0
 _ZN4Qt3D12QStencilTest11qt_metacallEN11QMetaObject4CallEiPPv@Base 5.5.0
 _ZN4Qt3D12QStencilTest11qt_metacastEPKc@Base 5.5.0
 _ZN4Qt3D12QStencilTest11setFaceModeENS0_15StencilFaceModeE@Base 5.5.0
 _ZN4Qt3D12QStencilTest15faceModeChangedEv@Base 5.5.0
 _ZN4Qt3D12QStencilTest16staticMetaObjectE@Base 5.5.0
 _ZN4Qt3D12QStencilTest4copyEPKNS_5QNodeE@Base 5.5.0
 _ZN4Qt3D12QStencilTest7setFuncENS0_11StencilFuncE@Base 5.5.0
 _ZN4Qt3D12QStencilTest7setMaskEj@Base 5.5.0
 _ZN4Qt3D12QStencilTestC1EPNS_5QNodeE@Base 5.5.0
 _ZN4Qt3D12QStencilTestC2EPNS_5QNodeE@Base 5.5.0
 _ZN4Qt3D12TexImageData7setDataERK10QByteArrayN14QOpenGLTexture11PixelFormatENS4_9PixelTypeE@Base 5.5.0
 _ZN4Qt3D12TexImageData8setImageERK6QImage@Base 5.5.0
 _ZN4Qt3D12TexImageDataC1Ev@Base 5.5.0
 _ZN4Qt3D12TexImageDataC2Ev@Base 5.5.0
 _ZN4Qt3D13BufferPrivateC1Ev@Base 5.5.0
 _ZN4Qt3D13BufferPrivateC2Ev@Base 5.5.0
 _ZN4Qt3D13QAbstractMesh11qt_metacallEN11QMetaObject4CallEiPPv@Base 5.5.0
 _ZN4Qt3D13QAbstractMesh11qt_metacastEPKc@Base 5.5.0
 _ZN4Qt3D13QAbstractMesh16staticMetaObjectE@Base 5.5.0
 _ZN4Qt3D13QAbstractMesh4copyEPKNS_5QNodeE@Base 5.5.0
 _ZN4Qt3D13QAbstractMesh6updateEv@Base 5.5.0
 _ZN4Qt3D13QAbstractMeshC1EPNS_5QNodeE@Base 5.5.0
 _ZN4Qt3D13QAbstractMeshC1ERNS_20QAbstractMeshPrivateEPNS_5QNodeE@Base 5.5.0
 _ZN4Qt3D13QAbstractMeshC2EPNS_5QNodeE@Base 5.5.0
 _ZN4Qt3D13QAbstractMeshC2ERNS_20QAbstractMeshPrivateEPNS_5QNodeE@Base 5.5.0
 _ZN4Qt3D13QCylinderMesh11qt_metacallEN11QMetaObject4CallEiPPv@Base 5.5.0
 _ZN4Qt3D13QCylinderMesh11qt_metacastEPKc@Base 5.5.0
 _ZN4Qt3D13QCylinderMesh12ringsChangedEi@Base 5.5.0
 _ZN4Qt3D13QCylinderMesh13lengthChangedEf@Base 5.5.0
 _ZN4Qt3D13QCylinderMesh13radiusChangedEf@Base 5.5.0
 _ZN4Qt3D13QCylinderMesh13slicesChangedEi@Base 5.5.0
 _ZN4Qt3D13QCylinderMesh16staticMetaObjectE@Base 5.5.0
 _ZN4Qt3D13QCylinderMesh4copyEPKNS_5QNodeE@Base 5.5.0
 _ZN4Qt3D13QCylinderMesh8setRingsEi@Base 5.5.0
 _ZN4Qt3D13QCylinderMesh9setLengthEf@Base 5.5.0
 _ZN4Qt3D13QCylinderMesh9setRadiusEf@Base 5.5.0
 _ZN4Qt3D13QCylinderMesh9setSlicesEi@Base 5.5.0
 _ZN4Qt3D13QCylinderMeshC1EPNS_5QNodeE@Base 5.5.0
 _ZN4Qt3D13QCylinderMeshC2EPNS_5QNodeE@Base 5.5.0
 _ZN4Qt3D13QLayerPrivateC1Ev@Base 5.5.0
 _ZN4Qt3D13QLayerPrivateC2Ev@Base 5.5.0
 _ZN4Qt3D13QOpenGLFilter10apiChangedEv@Base 5.5.0
 _ZN4Qt3D13QOpenGLFilter10setProfileENS0_7ProfileE@Base 5.5.0
 _ZN4Qt3D13QOpenGLFilter11qt_metacallEN11QMetaObject4CallEiPPv@Base 5.5.0
 _ZN4Qt3D13QOpenGLFilter11qt_metacastEPKc@Base 5.5.0
 _ZN4Qt3D13QOpenGLFilter13setExtensionsERK11QStringList@Base 5.5.0
 _ZN4Qt3D13QOpenGLFilter13vendorChangedEv@Base 5.5.0
 _ZN4Qt3D13QOpenGLFilter14profileChangedEv@Base 5.5.0
 _ZN4Qt3D13QOpenGLFilter15setMajorVersionEi@Base 5.5.0
 _ZN4Qt3D13QOpenGLFilter15setMinorVersionEi@Base 5.5.0
 _ZN4Qt3D13QOpenGLFilter16staticMetaObjectE@Base 5.5.0
 _ZN4Qt3D13QOpenGLFilter17extensionsChangedEv@Base 5.5.0
 _ZN4Qt3D13QOpenGLFilter19majorVersionChangedEv@Base 5.5.0
 _ZN4Qt3D13QOpenGLFilter19minorVersionChangedEv@Base 5.5.0
 _ZN4Qt3D13QOpenGLFilter19openGLFilterChangedEv@Base 5.5.0
 _ZN4Qt3D13QOpenGLFilter4copyERKS0_@Base 5.5.0
 _ZN4Qt3D13QOpenGLFilter6setApiENS0_3ApiE@Base 5.5.0
 _ZN4Qt3D13QOpenGLFilter9setVendorERK7QString@Base 5.5.0
 _ZN4Qt3D13QOpenGLFilterC1EP7QObject@Base 5.5.0
 _ZN4Qt3D13QOpenGLFilterC2EP7QObject@Base 5.5.0
 _ZN4Qt3D13QRenderAspect11qt_metacallEN11QMetaObject4CallEiPPv@Base 5.5.0
 _ZN4Qt3D13QRenderAspect11qt_metacastEPKc@Base 5.5.0
 _ZN4Qt3D13QRenderAspect12onInitializeERK4QMapI7QString8QVariantE@Base 5.5.0
 _ZN4Qt3D13QRenderAspect13jobsToExecuteEx@Base 5.5.0
 _ZN4Qt3D13QRenderAspect13setRootEntityEPNS_7QEntityE@Base 5.5.0
 _ZN4Qt3D13QRenderAspect14renderShutdownEv@Base 5.5.0
 _ZN4Qt3D13QRenderAspect14sceneNodeAddedER14QSharedPointerINS_12QSceneChangeEE@Base 5.5.0
 _ZN4Qt3D13QRenderAspect16renderInitializeEP14QOpenGLContext@Base 5.5.0
 _ZN4Qt3D13QRenderAspect16sceneNodeRemovedER14QSharedPointerINS_12QSceneChangeEE@Base 5.5.0
 _ZN4Qt3D13QRenderAspect16staticMetaObjectE@Base 5.5.0
 _ZN4Qt3D13QRenderAspect17renderSynchronousEv@Base 5.5.0
 _ZN4Qt3D13QRenderAspect20registerBackendTypesEv@Base 5.5.0
 _ZN4Qt3D13QRenderAspect9onCleanupEv@Base 5.5.0
 _ZN4Qt3D13QRenderAspect9visitNodeEPNS_5QNodeE@Base 5.5.0
 _ZN4Qt3D13QRenderAspectC1ENS0_10RenderTypeEP7QObject@Base 5.5.0
 _ZN4Qt3D13QRenderAspectC1EP7QObject@Base 5.5.0
 _ZN4Qt3D13QRenderAspectC1ERNS_20QRenderAspectPrivateEP7QObject@Base 5.5.0
 _ZN4Qt3D13QRenderAspectC2ENS0_10RenderTypeEP7QObject@Base 5.5.0
 _ZN4Qt3D13QRenderAspectC2EP7QObject@Base 5.5.0
 _ZN4Qt3D13QRenderAspectC2ERNS_20QRenderAspectPrivateEP7QObject@Base 5.5.0
 _ZN4Qt3D13QRenderTarget11qt_metacallEN11QMetaObject4CallEiPPv@Base 5.5.0
 _ZN4Qt3D13QRenderTarget11qt_metacastEPKc@Base 5.5.0
 _ZN4Qt3D13QRenderTarget13addAttachmentEPNS_17QRenderAttachmentE@Base 5.5.0
 _ZN4Qt3D13QRenderTarget16removeAttachmentEPNS_17QRenderAttachmentE@Base 5.5.0
 _ZN4Qt3D13QRenderTarget16staticMetaObjectE@Base 5.5.0
 _ZN4Qt3D13QRenderTarget4copyEPKNS_5QNodeE@Base 5.5.0
 _ZN4Qt3D13QRenderTargetC1EPNS_5QNodeE@Base 5.5.0
 _ZN4Qt3D13QRenderTargetC1ERNS_20QRenderTargetPrivateEPNS_5QNodeE@Base 5.5.0
 _ZN4Qt3D13QRenderTargetC2EPNS_5QNodeE@Base 5.5.0
 _ZN4Qt3D13QRenderTargetC2ERNS_20QRenderTargetPrivateEPNS_5QNodeE@Base 5.5.0
 _ZN4Qt3D13QSkyboxEntity11qt_metacallEN11QMetaObject4CallEiPPv@Base 5.5.0
 _ZN4Qt3D13QSkyboxEntity11qt_metacastEPKc@Base 5.5.0
 _ZN4Qt3D13QSkyboxEntity11setBaseNameERK7QString@Base 5.5.0
 _ZN4Qt3D13QSkyboxEntity12setExtensionERK7QString@Base 5.5.0
 _ZN4Qt3D13QSkyboxEntity16extensionChangedEv@Base 5.5.0
 _ZN4Qt3D13QSkyboxEntity16staticMetaObjectE@Base 5.5.0
 _ZN4Qt3D13QSkyboxEntity17setCameraPositionERK9QVector3D@Base 5.5.0
 _ZN4Qt3D13QSkyboxEntity21cameraPositionChangedEv@Base 5.5.0
 _ZN4Qt3D13QSkyboxEntity22sourceDirectoryChangedEv@Base 5.5.0
 _ZN4Qt3D13QSkyboxEntityC1EPNS_5QNodeE@Base 5.5.0
 _ZN4Qt3D13QSkyboxEntityC2EPNS_5QNodeE@Base 5.5.0
 _ZN4Qt3D13QSkyboxEntityD0Ev@Base 5.5.0
 _ZN4Qt3D13QSkyboxEntityD1Ev@Base 5.5.0
 _ZN4Qt3D13QSkyboxEntityD2Ev@Base 5.5.0
 _ZN4Qt3D13QTextureImage11qt_metacallEN11QMetaObject4CallEiPPv@Base 5.5.0
 _ZN4Qt3D13QTextureImage11qt_metacastEPKc@Base 5.5.0
 _ZN4Qt3D13QTextureImage13sourceChangedEv@Base 5.5.0
 _ZN4Qt3D13QTextureImage16staticMetaObjectE@Base 5.5.0
 _ZN4Qt3D13QTextureImage4copyEPKNS_5QNodeE@Base 5.5.0
 _ZN4Qt3D13QTextureImage9setSourceERK4QUrl@Base 5.5.0
 _ZN4Qt3D13QTextureImageC1EPNS_5QNodeE@Base 5.5.0
 _ZN4Qt3D13QTextureImageC2EPNS_5QNodeE@Base 5.5.0
 _ZN4Qt3D13QTextureImageD0Ev@Base 5.5.0
 _ZN4Qt3D13QTextureImageD1Ev@Base 5.5.0
 _ZN4Qt3D13QTextureImageD2Ev@Base 5.5.0
 _ZN4Qt3D14QAbstractLight11qt_metacallEN11QMetaObject4CallEiPPv@Base 5.5.0
 _ZN4Qt3D14QAbstractLight11qt_metacastEPKc@Base 5.5.0
 _ZN4Qt3D14QAbstractLight11setPositionERK9QVector3D@Base 5.5.0
 _ZN4Qt3D14QAbstractLight12colorChangedEv@Base 5.5.0
 _ZN4Qt3D14QAbstractLight12setIntensityEf@Base 5.5.0
 _ZN4Qt3D14QAbstractLight15positionChangedEv@Base 5.5.0
 _ZN4Qt3D14QAbstractLight16intensityChangedEv@Base 5.5.0
 _ZN4Qt3D14QAbstractLight16staticMetaObjectE@Base 5.5.0
 _ZN4Qt3D14QAbstractLight4copyEPKNS_5QNodeE@Base 5.5.0
 _ZN4Qt3D14QAbstractLight8setColorERK6QColor@Base 5.5.0
 _ZN4Qt3D14QAbstractLightC1EPNS_5QNodeE@Base 5.5.0
 _ZN4Qt3D14QAbstractLightC1ERNS_21QAbstractLightPrivateEPNS_5QNodeE@Base 5.5.0
 _ZN4Qt3D14QAbstractLightC2EPNS_5QNodeE@Base 5.5.0
 _ZN4Qt3D14QAbstractLightC2ERNS_21QAbstractLightPrivateEPNS_5QNodeE@Base 5.5.0
 _ZN4Qt3D14QAlphaCoverage11qt_metacallEN11QMetaObject4CallEiPPv@Base 5.5.0
 _ZN4Qt3D14QAlphaCoverage11qt_metacastEPKc@Base 5.5.0
 _ZN4Qt3D14QAlphaCoverage16staticMetaObjectE@Base 5.5.0
 _ZN4Qt3D14QAlphaCoverageC1EPNS_5QNodeE@Base 5.5.0
 _ZN4Qt3D14QAlphaCoverageC2EPNS_5QNodeE@Base 5.5.0
 (optional=templinst)_ZN4Qt3D14QAspectFactory14functionHelperINS_13QRenderAspectEEEPNS_15QAbstractAspectEP7QObject@Base 5.5.0
 _ZN4Qt3D14QBlendEquation11modeChangedEv@Base 5.5.0
 _ZN4Qt3D14QBlendEquation11qt_metacallEN11QMetaObject4CallEiPPv@Base 5.5.0
 _ZN4Qt3D14QBlendEquation11qt_metacastEPKc@Base 5.5.0
 _ZN4Qt3D14QBlendEquation16staticMetaObjectE@Base 5.5.0
 _ZN4Qt3D14QBlendEquation4copyEPKNS_5QNodeE@Base 5.5.0
 _ZN4Qt3D14QBlendEquation7setModeENS0_9BlendModeE@Base 5.5.0
 _ZN4Qt3D14QBlendEquationC1EPNS_5QNodeE@Base 5.5.0
 _ZN4Qt3D14QBlendEquationC2EPNS_5QNodeE@Base 5.5.0
 _ZN4Qt3D14QEffectPrivateC1Ev@Base 5.5.0
 _ZN4Qt3D14QEffectPrivateC2Ev@Base 5.5.0
 _ZN4Qt3D14QPhongMaterial10setAmbientERK6QColor@Base 5.5.0
 _ZN4Qt3D14QPhongMaterial10setDiffuseERK6QColor@Base 5.5.0
 _ZN4Qt3D14QPhongMaterial11qt_metacallEN11QMetaObject4CallEiPPv@Base 5.5.0
 _ZN4Qt3D14QPhongMaterial11qt_metacastEPKc@Base 5.5.0
 _ZN4Qt3D14QPhongMaterial11setSpecularERK6QColor@Base 5.5.0
 _ZN4Qt3D14QPhongMaterial12setShininessEf@Base 5.5.0
 _ZN4Qt3D14QPhongMaterial14ambientChangedEv@Base 5.5.0
 _ZN4Qt3D14QPhongMaterial14diffuseChangedEv@Base 5.5.0
 _ZN4Qt3D14QPhongMaterial15specularChangedEv@Base 5.5.0
 _ZN4Qt3D14QPhongMaterial16shininessChangedEv@Base 5.5.0
 _ZN4Qt3D14QPhongMaterial16staticMetaObjectE@Base 5.5.0
 _ZN4Qt3D14QPhongMaterialC1EPNS_5QNodeE@Base 5.5.0
 _ZN4Qt3D14QPhongMaterialC2EPNS_5QNodeE@Base 5.5.0
 _ZN4Qt3D14QPhongMaterialD0Ev@Base 5.5.0
 _ZN4Qt3D14QPhongMaterialD1Ev@Base 5.5.0
 _ZN4Qt3D14QPhongMaterialD2Ev@Base 5.5.0
 _ZN4Qt3D14QPolygonOffset11qt_metacallEN11QMetaObject4CallEiPPv@Base 5.5.0
 _ZN4Qt3D14QPolygonOffset11qt_metacastEPKc@Base 5.5.0
 _ZN4Qt3D14QPolygonOffset12unitsChangedEf@Base 5.5.0
 _ZN4Qt3D14QPolygonOffset13factorChangedEf@Base 5.5.0
 _ZN4Qt3D14QPolygonOffset16staticMetaObjectE@Base 5.5.0
 _ZN4Qt3D14QPolygonOffset4copyEPKNS_5QNodeE@Base 5.5.0
 _ZN4Qt3D14QPolygonOffset8setUnitsEf@Base 5.5.0
 _ZN4Qt3D14QPolygonOffset9setFactorEf@Base 5.5.0
 _ZN4Qt3D14QPolygonOffsetC1EPNS_5QNodeE@Base 5.5.0
 _ZN4Qt3D14QPolygonOffsetC2EPNS_5QNodeE@Base 5.5.0
 _ZN4Qt3D14QShaderProgram10loadSourceERK4QUrl@Base 5.5.0
 _ZN4Qt3D14QShaderProgram11qt_metacallEN11QMetaObject4CallEiPPv@Base 5.5.0
 _ZN4Qt3D14QShaderProgram11qt_metacastEPKc@Base 5.5.0
 _ZN4Qt3D14QShaderProgram13setShaderCodeENS0_10ShaderTypeERK10QByteArray@Base 5.5.0
 _ZN4Qt3D14QShaderProgram16staticMetaObjectE@Base 5.5.0
 _ZN4Qt3D14QShaderProgram19setVertexShaderCodeERK10QByteArray@Base 5.5.0
 _ZN4Qt3D14QShaderProgram20setComputeShaderCodeERK10QByteArray@Base 5.5.0
 _ZN4Qt3D14QShaderProgram21setFragmentShaderCodeERK10QByteArray@Base 5.5.0
 _ZN4Qt3D14QShaderProgram21setGeometryShaderCodeERK10QByteArray@Base 5.5.0
 _ZN4Qt3D14QShaderProgram23vertexShaderCodeChangedEv@Base 5.5.0
 _ZN4Qt3D14QShaderProgram24computeShaderCodeChangedEv@Base 5.5.0
 _ZN4Qt3D14QShaderProgram25fragmentShaderCodeChangedEv@Base 5.5.0
 _ZN4Qt3D14QShaderProgram25geometryShaderCodeChangedEv@Base 5.5.0
 _ZN4Qt3D14QShaderProgram32setTessellationControlShaderCodeERK10QByteArray@Base 5.5.0
 _ZN4Qt3D14QShaderProgram35setTessellationEvaluationShaderCodeERK10QByteArray@Base 5.5.0
 _ZN4Qt3D14QShaderProgram36tessellationControlShaderCodeChangedEv@Base 5.5.0
 _ZN4Qt3D14QShaderProgram39tessellationEvaluationShaderCodeChangedEv@Base 5.5.0
 _ZN4Qt3D14QShaderProgram4copyEPKNS_5QNodeE@Base 5.5.0
 _ZN4Qt3D14QShaderProgramC1EPNS_5QNodeE@Base 5.5.0
 _ZN4Qt3D14QShaderProgramC1ERNS_21QShaderProgramPrivateEPNS_5QNodeE@Base 5.5.0
 _ZN4Qt3D14QShaderProgramC2EPNS_5QNodeE@Base 5.5.0
 _ZN4Qt3D14QShaderProgramC2ERNS_21QShaderProgramPrivateEPNS_5QNodeE@Base 5.5.0
 _ZN4Qt3D14QSortCriterion11qt_metacallEN11QMetaObject4CallEiPPv@Base 5.5.0
 _ZN4Qt3D14QSortCriterion11qt_metacastEPKc@Base 5.5.0
 _ZN4Qt3D14QSortCriterion11sortChangedEv@Base 5.5.0
 _ZN4Qt3D14QSortCriterion16staticMetaObjectE@Base 5.5.0
 _ZN4Qt3D14QSortCriterion4copyEPKNS_5QNodeE@Base 5.5.0
 _ZN4Qt3D14QSortCriterion7setSortERNS0_8SortTypeE@Base 5.5.0
 _ZN4Qt3D14QSortCriterionC1EPNS_5QNodeE@Base 5.5.0
 _ZN4Qt3D14QSortCriterionC1ERNS_21QSortCriterionPrivateEPNS_5QNodeE@Base 5.5.0
 _ZN4Qt3D14QSortCriterionC2EPNS_5QNodeE@Base 5.5.0
 _ZN4Qt3D14QSortCriterionC2ERNS_21QSortCriterionPrivateEPNS_5QNodeE@Base 5.5.0
 _ZN4Qt3D14QTextureBuffer11qt_metacallEN11QMetaObject4CallEiPPv@Base 5.5.0
 _ZN4Qt3D14QTextureBuffer11qt_metacastEPKc@Base 5.5.0
 _ZN4Qt3D14QTextureBuffer16staticMetaObjectE@Base 5.5.0
 _ZN4Qt3D14QTextureBufferC1EPNS_5QNodeE@Base 5.5.0
 _ZN4Qt3D14QTextureBufferC2EPNS_5QNodeE@Base 5.5.0
 _ZN4Qt3D14QTextureBufferD0Ev@Base 5.5.0
 _ZN4Qt3D14QTextureBufferD1Ev@Base 5.5.0
 _ZN4Qt3D14QTextureBufferD2Ev@Base 5.5.0
 _ZN4Qt3D15QCameraSelector11qt_metacallEN11QMetaObject4CallEiPPv@Base 5.5.0
 _ZN4Qt3D15QCameraSelector11qt_metacastEPKc@Base 5.5.0
 _ZN4Qt3D15QCameraSelector13cameraChangedEv@Base 5.5.0
 _ZN4Qt3D15QCameraSelector16staticMetaObjectE@Base 5.5.0
 _ZN4Qt3D15QCameraSelector4copyEPKNS_5QNodeE@Base 5.5.0
 _ZN4Qt3D15QCameraSelector9setCameraEPNS_7QEntityE@Base 5.5.0
 _ZN4Qt3D15QCameraSelectorC1EPNS_5QNodeE@Base 5.5.0
 _ZN4Qt3D15QCameraSelectorC1ERNS_22QCameraSelectorPrivateEPNS_5QNodeE@Base 5.5.0
 _ZN4Qt3D15QCameraSelectorC2EPNS_5QNodeE@Base 5.5.0
 _ZN4Qt3D15QCameraSelectorC2ERNS_22QCameraSelectorPrivateEPNS_5QNodeE@Base 5.5.0
 _ZN4Qt3D15QFrameGraphNode10setEnabledEb@Base 5.5.0
 _ZN4Qt3D15QFrameGraphNode11qt_metacallEN11QMetaObject4CallEiPPv@Base 5.5.0
 _ZN4Qt3D15QFrameGraphNode11qt_metacastEPKc@Base 5.5.0
 _ZN4Qt3D15QFrameGraphNode14enabledChangedEv@Base 5.5.0
 _ZN4Qt3D15QFrameGraphNode16staticMetaObjectE@Base 5.5.0
 _ZN4Qt3D15QFrameGraphNodeC1EPNS_5QNodeE@Base 5.5.0
 _ZN4Qt3D15QFrameGraphNodeC1ERNS_22QFrameGraphNodePrivateEPNS_5QNodeE@Base 5.5.0
 _ZN4Qt3D15QFrameGraphNodeC2EPNS_5QNodeE@Base 5.5.0
 _ZN4Qt3D15QFrameGraphNodeC2ERNS_22QFrameGraphNodePrivateEPNS_5QNodeE@Base 5.5.0
 _ZN4Qt3D15QTexture1DArray11qt_metacallEN11QMetaObject4CallEiPPv@Base 5.5.0
 _ZN4Qt3D15QTexture1DArray11qt_metacastEPKc@Base 5.5.0
 _ZN4Qt3D15QTexture1DArray16staticMetaObjectE@Base 5.5.0
 _ZN4Qt3D15QTexture1DArrayC1EPNS_5QNodeE@Base 5.5.0
 _ZN4Qt3D15QTexture1DArrayC2EPNS_5QNodeE@Base 5.5.0
 _ZN4Qt3D15QTexture1DArrayD0Ev@Base 5.5.0
 _ZN4Qt3D15QTexture1DArrayD1Ev@Base 5.5.0
 _ZN4Qt3D15QTexture1DArrayD2Ev@Base 5.5.0
 _ZN4Qt3D15QTexture2DArray11qt_metacallEN11QMetaObject4CallEiPPv@Base 5.5.0
 _ZN4Qt3D15QTexture2DArray11qt_metacastEPKc@Base 5.5.0
 _ZN4Qt3D15QTexture2DArray16staticMetaObjectE@Base 5.5.0
 _ZN4Qt3D15QTexture2DArrayC1EPNS_5QNodeE@Base 5.5.0
 _ZN4Qt3D15QTexture2DArrayC2EPNS_5QNodeE@Base 5.5.0
 _ZN4Qt3D15QTexture2DArrayD0Ev@Base 5.5.0
 _ZN4Qt3D15QTexture2DArrayD1Ev@Base 5.5.0
 _ZN4Qt3D15QTexture2DArrayD2Ev@Base 5.5.0
 _ZN4Qt3D15QTextureCubeMap11qt_metacallEN11QMetaObject4CallEiPPv@Base 5.5.0
 _ZN4Qt3D15QTextureCubeMap11qt_metacastEPKc@Base 5.5.0
 _ZN4Qt3D15QTextureCubeMap16staticMetaObjectE@Base 5.5.0
 _ZN4Qt3D15QTextureCubeMapC1EPNS_5QNodeE@Base 5.5.0
 _ZN4Qt3D15QTextureCubeMapC2EPNS_5QNodeE@Base 5.5.0
 _ZN4Qt3D15QTextureCubeMapD0Ev@Base 5.5.0
 _ZN4Qt3D15QTextureCubeMapD1Ev@Base 5.5.0
 _ZN4Qt3D15QTextureCubeMapD2Ev@Base 5.5.0
 _ZN4Qt3D16AttributePrivateC1Ev@Base 5.5.0
 _ZN4Qt3D16AttributePrivateC2Ev@Base 5.5.0
 _ZN4Qt3D16QForwardRenderer11qt_metacallEN11QMetaObject4CallEiPPv@Base 5.5.0
 _ZN4Qt3D16QForwardRenderer11qt_metacastEPKc@Base 5.5.0
 _ZN4Qt3D16QForwardRenderer13cameraChangedEv@Base 5.5.0
 _ZN4Qt3D16QForwardRenderer13setClearColorERK6QColor@Base 5.5.0
 _ZN4Qt3D16QForwardRenderer15setViewportRectERK6QRectF@Base 5.5.0
 _ZN4Qt3D16QForwardRenderer16staticMetaObjectE@Base 5.5.0
 _ZN4Qt3D16QForwardRenderer17clearColorChangedEv@Base 5.5.0
 _ZN4Qt3D16QForwardRenderer19viewportRectChangedEv@Base 5.5.0
 _ZN4Qt3D16QForwardRenderer9setCameraEPNS_7QEntityE@Base 5.5.0
 _ZN4Qt3D16QForwardRendererC1EPNS_5QNodeE@Base 5.5.0
 _ZN4Qt3D16QForwardRendererC2EPNS_5QNodeE@Base 5.5.0
 _ZN4Qt3D16QForwardRendererD0Ev@Base 5.5.0
 _ZN4Qt3D16QForwardRendererD1Ev@Base 5.5.0
 _ZN4Qt3D16QForwardRendererD2Ev@Base 5.5.0
 _ZN4Qt3D16QItemModelBuffer11RoleMappingC1E10QByteArray7QStringi@Base 5.5.0
 _ZN4Qt3D16QItemModelBuffer11RoleMappingC2E10QByteArray7QStringi@Base 5.5.0
 _ZN4Qt3D16QItemModelBuffer11mapRoleNameE10QByteArray7QStringi@Base 5.5.0
 _ZN4Qt3D16QItemModelBuffer11mapRoleNameE10QByteArrayi@Base 5.5.0
 _ZN4Qt3D16QItemModelBuffer11qt_metacallEN11QMetaObject4CallEiPPv@Base 5.5.0
 _ZN4Qt3D16QItemModelBuffer11qt_metacastEPKc@Base 5.5.0
 _ZN4Qt3D16QItemModelBuffer12onModelResetEv@Base 5.5.0
 _ZN4Qt3D16QItemModelBuffer13validateRolesEv@Base 5.5.0
 _ZN4Qt3D16QItemModelBuffer16staticMetaObjectE@Base 5.5.0
 _ZN4Qt3D16QItemModelBuffer17computeBufferDataEv@Base 5.5.0
 _ZN4Qt3D16QItemModelBuffer17writeDataForIndexERK11QModelIndexiPc@Base 5.5.0
 _ZN4Qt3D16QItemModelBuffer18onModelDataChangedERK11QModelIndexS3_@Base 5.5.0
 _ZN4Qt3D16QItemModelBuffer6bufferEv@Base 5.5.0
 _ZN4Qt3D16QItemModelBuffer7setRootERK11QModelIndex@Base 5.5.0
 _ZN4Qt3D16QItemModelBuffer8setModelEP18QAbstractItemModel@Base 5.5.0
 _ZN4Qt3D16QItemModelBufferC1Ev@Base 5.5.0
 _ZN4Qt3D16QItemModelBufferC2Ev@Base 5.5.0
 _ZN4Qt3D16QMaterialPrivateC1Ev@Base 5.5.0
 _ZN4Qt3D16QMaterialPrivateC2Ev@Base 5.5.0
 _ZN4Qt3D16QTechniqueFilter11qt_metacallEN11QMetaObject4CallEiPPv@Base 5.5.0
 _ZN4Qt3D16QTechniqueFilter11qt_metacastEPKc@Base 5.5.0
 _ZN4Qt3D16QTechniqueFilter12addParameterEPNS_10QParameterE@Base 5.5.0
 _ZN4Qt3D16QTechniqueFilter14addRequirementEPNS_11QAnnotationE@Base 5.5.0
 _ZN4Qt3D16QTechniqueFilter15removeParameterEPNS_10QParameterE@Base 5.5.0
 _ZN4Qt3D16QTechniqueFilter16staticMetaObjectE@Base 5.5.0
 _ZN4Qt3D16QTechniqueFilter17removeRequirementEPNS_11QAnnotationE@Base 5.5.0
 _ZN4Qt3D16QTechniqueFilter4copyEPKNS_5QNodeE@Base 5.5.0
 _ZN4Qt3D16QTechniqueFilterC1EPNS_5QNodeE@Base 5.5.0
 _ZN4Qt3D16QTechniqueFilterC1ERNS_23QTechniqueFilterPrivateEPNS_5QNodeE@Base 5.5.0
 _ZN4Qt3D16QTechniqueFilterC2EPNS_5QNodeE@Base 5.5.0
 _ZN4Qt3D16QTechniqueFilterC2ERNS_23QTechniqueFilterPrivateEPNS_5QNodeE@Base 5.5.0
 _ZN4Qt3D16QTextureWrapMode11qt_metacallEN11QMetaObject4CallEiPPv@Base 5.5.0
 _ZN4Qt3D16QTextureWrapMode11qt_metacastEPKc@Base 5.5.0
 _ZN4Qt3D16QTextureWrapMode16staticMetaObjectE@Base 5.5.0
 _ZN4Qt3D16QTextureWrapMode4setXENS0_8WrapModeE@Base 5.5.0
 _ZN4Qt3D16QTextureWrapMode4setYENS0_8WrapModeE@Base 5.5.0
 _ZN4Qt3D16QTextureWrapMode4setZENS0_8WrapModeE@Base 5.5.0
 _ZN4Qt3D16QTextureWrapMode8xChangedEv@Base 5.5.0
 _ZN4Qt3D16QTextureWrapMode8yChangedEv@Base 5.5.0
 _ZN4Qt3D16QTextureWrapMode8zChangedEv@Base 5.5.0
 _ZN4Qt3D16QTextureWrapModeC1ENS0_8WrapModeEP7QObject@Base 5.5.0
 _ZN4Qt3D16QTextureWrapModeC1ENS0_8WrapModeES1_S1_P7QObject@Base 5.5.0
 _ZN4Qt3D16QTextureWrapModeC2ENS0_8WrapModeEP7QObject@Base 5.5.0
 _ZN4Qt3D16QTextureWrapModeC2ENS0_8WrapModeES1_S1_P7QObject@Base 5.5.0
 _ZN4Qt3D17QDirectionalLight11qt_metacallEN11QMetaObject4CallEiPPv@Base 5.5.0
 _ZN4Qt3D17QDirectionalLight11qt_metacastEPKc@Base 5.5.0
 _ZN4Qt3D17QDirectionalLight12setDirectionERK9QVector3D@Base 5.5.0
 _ZN4Qt3D17QDirectionalLight16directionChangedEv@Base 5.5.0
 _ZN4Qt3D17QDirectionalLight16staticMetaObjectE@Base 5.5.0
 _ZN4Qt3D17QDirectionalLight4copyEPKNS_5QNodeE@Base 5.5.0
 _ZN4Qt3D17QDirectionalLightC1EPNS_5QNodeE@Base 5.5.0
 _ZN4Qt3D17QDirectionalLightC1ERNS_24QDirectionalLightPrivateEPNS_5QNodeE@Base 5.5.0
 _ZN4Qt3D17QDirectionalLightC2EPNS_5QNodeE@Base 5.5.0
 _ZN4Qt3D17QDirectionalLightC2ERNS_24QDirectionalLightPrivateEPNS_5QNodeE@Base 5.5.0
 _ZN4Qt3D17QParameterMapping11qt_metacallEN11QMetaObject4CallEiPPv@Base 5.5.0
 _ZN4Qt3D17QParameterMapping11qt_metacastEPKc@Base 5.5.0
 _ZN4Qt3D17QParameterMapping14setBindingTypeENS0_7BindingE@Base 5.5.0
 _ZN4Qt3D17QParameterMapping16setParameterNameERK7QString@Base 5.5.0
 _ZN4Qt3D17QParameterMapping16staticMetaObjectE@Base 5.5.0
 _ZN4Qt3D17QParameterMapping18bindingTypeChangedEv@Base 5.5.0
 _ZN4Qt3D17QParameterMapping20parameterNameChangedEv@Base 5.5.0
 _ZN4Qt3D17QParameterMapping21setShaderVariableNameERK7QString@Base 5.5.0
 _ZN4Qt3D17QParameterMapping25shaderVariableNameChangedEv@Base 5.5.0
 _ZN4Qt3D17QParameterMapping4copyEPKNS_5QNodeE@Base 5.5.0
 _ZN4Qt3D17QParameterMappingC1EPNS_5QNodeE@Base 5.5.0
 _ZN4Qt3D17QParameterMappingC1ERK7QStringS3_NS0_7BindingEPNS_5QNodeE@Base 5.5.0
 _ZN4Qt3D17QParameterMappingC1ERNS_24QParameterMappingPrivateEPNS_5QNodeE@Base 5.5.0
 _ZN4Qt3D17QParameterMappingC2EPNS_5QNodeE@Base 5.5.0
 _ZN4Qt3D17QParameterMappingC2ERK7QStringS3_NS0_7BindingEPNS_5QNodeE@Base 5.5.0
 _ZN4Qt3D17QParameterMappingC2ERNS_24QParameterMappingPrivateEPNS_5QNodeE@Base 5.5.0
 _ZN4Qt3D17QParameterPrivate8setValueERK8QVariant@Base 5.5.0
 _ZN4Qt3D17QParameterPrivateC1Ev@Base 5.5.0
 _ZN4Qt3D17QParameterPrivateC2Ev@Base 5.5.0
 _ZN4Qt3D17QRenderAttachment10setTextureEPNS_24QAbstractTextureProviderE@Base 5.5.0
 _ZN4Qt3D17QRenderAttachment11faceChangedEv@Base 5.5.0
 _ZN4Qt3D17QRenderAttachment11nameChangedEv@Base 5.5.0
 _ZN4Qt3D17QRenderAttachment11qt_metacallEN11QMetaObject4CallEiPPv@Base 5.5.0
 _ZN4Qt3D17QRenderAttachment11qt_metacastEPKc@Base 5.5.0
 _ZN4Qt3D17QRenderAttachment11setMipLevelEi@Base 5.5.0
 _ZN4Qt3D17QRenderAttachment11typeChangedEv@Base 5.5.0
 _ZN4Qt3D17QRenderAttachment12layerChangedEv@Base 5.5.0
 _ZN4Qt3D17QRenderAttachment14textureChangedEv@Base 5.5.0
 _ZN4Qt3D17QRenderAttachment15mipLevelChangedEv@Base 5.5.0
 _ZN4Qt3D17QRenderAttachment16staticMetaObjectE@Base 5.5.0
 _ZN4Qt3D17QRenderAttachment4copyEPKNS_5QNodeE@Base 5.5.0
 _ZN4Qt3D17QRenderAttachment7setFaceENS0_11CubeMapFaceE@Base 5.5.0
 _ZN4Qt3D17QRenderAttachment7setNameERK7QString@Base 5.5.0
 _ZN4Qt3D17QRenderAttachment7setTypeENS0_20RenderAttachmentTypeE@Base 5.5.0
 _ZN4Qt3D17QRenderAttachment8setLayerEi@Base 5.5.0
 _ZN4Qt3D17QRenderAttachmentC1EPNS_5QNodeE@Base 5.5.0
 _ZN4Qt3D17QRenderAttachmentC1ERNS_24QRenderAttachmentPrivateEPNS_5QNodeE@Base 5.5.0
 _ZN4Qt3D17QRenderAttachmentC2EPNS_5QNodeE@Base 5.5.0
 _ZN4Qt3D17QRenderAttachmentC2ERNS_24QRenderAttachmentPrivateEPNS_5QNodeE@Base 5.5.0
 _ZN4Qt3D17QRenderPassFilter10addIncludeEPNS_11QAnnotationE@Base 5.5.0
 _ZN4Qt3D17QRenderPassFilter11qt_metacallEN11QMetaObject4CallEiPPv@Base 5.5.0
 _ZN4Qt3D17QRenderPassFilter11qt_metacastEPKc@Base 5.5.0
 _ZN4Qt3D17QRenderPassFilter12addParameterEPNS_10QParameterE@Base 5.5.0
 _ZN4Qt3D17QRenderPassFilter13removeIncludeEPNS_11QAnnotationE@Base 5.5.0
 _ZN4Qt3D17QRenderPassFilter15removeParameterEPNS_10QParameterE@Base 5.5.0
 _ZN4Qt3D17QRenderPassFilter16staticMetaObjectE@Base 5.5.0
 _ZN4Qt3D17QRenderPassFilter4copyEPKNS_5QNodeE@Base 5.5.0
 _ZN4Qt3D17QRenderPassFilterC1EPNS_5QNodeE@Base 5.5.0
 _ZN4Qt3D17QRenderPassFilterC1ERNS_24QRenderPassFilterPrivateEPNS_5QNodeE@Base 5.5.0
 _ZN4Qt3D17QRenderPassFilterC2EPNS_5QNodeE@Base 5.5.0
 _ZN4Qt3D17QRenderPassFilterC2ERNS_24QRenderPassFilterPrivateEPNS_5QNodeE@Base 5.5.0
 _ZN4Qt3D17QSpotLightPrivateC1Ev@Base 5.5.0
 _ZN4Qt3D17QSpotLightPrivateC2Ev@Base 5.5.0
 _ZN4Qt3D17QTechniquePrivate22_q_openGLFilterChangedEv@Base 5.5.0
 _ZN4Qt3D17QTechniquePrivateC1Ev@Base 5.5.0
 _ZN4Qt3D17QTechniquePrivateC2Ev@Base 5.5.0
 _ZN4Qt3D17QTechniquePrivateD0Ev@Base 5.5.0
 _ZN4Qt3D17QTechniquePrivateD1Ev@Base 5.5.0
 _ZN4Qt3D17QTechniquePrivateD2Ev@Base 5.5.0
 _ZN4Qt3D17QTextureRectangle11qt_metacallEN11QMetaObject4CallEiPPv@Base 5.5.0
 _ZN4Qt3D17QTextureRectangle11qt_metacastEPKc@Base 5.5.0
 _ZN4Qt3D17QTextureRectangle16staticMetaObjectE@Base 5.5.0
 _ZN4Qt3D17QTextureRectangleC1EPNS_5QNodeE@Base 5.5.0
 _ZN4Qt3D17QTextureRectangleC2EPNS_5QNodeE@Base 5.5.0
 _ZN4Qt3D17QTextureRectangleD0Ev@Base 5.5.0
 _ZN4Qt3D17QTextureRectangleD1Ev@Base 5.5.0
 _ZN4Qt3D17QTextureRectangleD2Ev@Base 5.5.0
 _ZN4Qt3D18QPointLightPrivateC1Ev@Base 5.5.0
 _ZN4Qt3D18QPointLightPrivateC2Ev@Base 5.5.0
 _ZN4Qt3D18QRenderPassPrivateC1Ev@Base 5.5.0
 _ZN4Qt3D18QRenderPassPrivateC2Ev@Base 5.5.0
 _ZN4Qt3D18QShaderDataPrivateC1E14QSharedPointerINS_23PropertyReaderInterfaceEE@Base 5.5.0
 _ZN4Qt3D18QShaderDataPrivateC1Ev@Base 5.5.0
 _ZN4Qt3D18QShaderDataPrivateC2E14QSharedPointerINS_23PropertyReaderInterfaceEE@Base 5.5.0
 _ZN4Qt3D18QShaderDataPrivateC2Ev@Base 5.5.0
 _ZN4Qt3D19AbstractSceneParser11qt_metacallEN11QMetaObject4CallEiPPv@Base 5.5.0
 _ZN4Qt3D19AbstractSceneParser11qt_metacastEPKc@Base 5.5.0
 _ZN4Qt3D19AbstractSceneParser13errorsChangedEv@Base 5.5.0
 _ZN4Qt3D19AbstractSceneParser15setParserStatusENS0_12ParserStatusE@Base 5.5.0
 _ZN4Qt3D19AbstractSceneParser16staticMetaObjectE@Base 5.5.0
 _ZN4Qt3D19AbstractSceneParser19parserStatusChangedEv@Base 5.5.0
 _ZN4Qt3D19AbstractSceneParser7logInfoERK7QString@Base 5.5.0
 _ZN4Qt3D19AbstractSceneParser8logErrorERK7QString@Base 5.5.0
 _ZN4Qt3D19AbstractSceneParserC1Ev@Base 5.5.0
 _ZN4Qt3D19AbstractSceneParserC2Ev@Base 5.5.0
 _ZN4Qt3D19AbstractSceneParserD0Ev@Base 5.5.0
 _ZN4Qt3D19AbstractSceneParserD1Ev@Base 5.5.0
 _ZN4Qt3D19AbstractSceneParserD2Ev@Base 5.5.0
 _ZN4Qt3D19QBlendStateSeparate11qt_metacallEN11QMetaObject4CallEiPPv@Base 5.5.0
 _ZN4Qt3D19QBlendStateSeparate11qt_metacastEPKc@Base 5.5.0
 _ZN4Qt3D19QBlendStateSeparate16staticMetaObjectE@Base 5.5.0
 _ZN4Qt3D19QBlendStateSeparateC1EPNS_5QNodeE@Base 5.5.0
 _ZN4Qt3D19QBlendStateSeparateC2EPNS_5QNodeE@Base 5.5.0
 _ZN4Qt3D19QDiffuseMapMaterial10setAmbientERK6QColor@Base 5.5.0
 _ZN4Qt3D19QDiffuseMapMaterial10setDiffuseEPNS_24QAbstractTextureProviderE@Base 5.5.0
 _ZN4Qt3D19QDiffuseMapMaterial11qt_metacallEN11QMetaObject4CallEiPPv@Base 5.5.0
 _ZN4Qt3D19QDiffuseMapMaterial11qt_metacastEPKc@Base 5.5.0
 _ZN4Qt3D19QDiffuseMapMaterial11setSpecularERK6QColor@Base 5.5.0
 _ZN4Qt3D19QDiffuseMapMaterial12setShininessEf@Base 5.5.0
 _ZN4Qt3D19QDiffuseMapMaterial14ambientChangedEv@Base 5.5.0
 _ZN4Qt3D19QDiffuseMapMaterial14diffuseChangedEv@Base 5.5.0
 _ZN4Qt3D19QDiffuseMapMaterial15setTextureScaleEf@Base 5.5.0
 _ZN4Qt3D19QDiffuseMapMaterial15specularChangedEv@Base 5.5.0
 _ZN4Qt3D19QDiffuseMapMaterial16shininessChangedEv@Base 5.5.0
 _ZN4Qt3D19QDiffuseMapMaterial16staticMetaObjectE@Base 5.5.0
 _ZN4Qt3D19QDiffuseMapMaterial19textureScaleChangedEv@Base 5.5.0
 _ZN4Qt3D19QDiffuseMapMaterialC1EPNS_5QNodeE@Base 5.5.0
 _ZN4Qt3D19QDiffuseMapMaterialC2EPNS_5QNodeE@Base 5.5.0
 _ZN4Qt3D19QDiffuseMapMaterialD0Ev@Base 5.5.0
 _ZN4Qt3D19QDiffuseMapMaterialD1Ev@Base 5.5.0
 _ZN4Qt3D19QDiffuseMapMaterialD2Ev@Base 5.5.0
 _ZN4Qt3D19QFrameGraphSelector11qt_metacallEN11QMetaObject4CallEiPPv@Base 5.5.0
 _ZN4Qt3D19QFrameGraphSelector11qt_metacastEPKc@Base 5.5.0
 _ZN4Qt3D19QFrameGraphSelector16staticMetaObjectE@Base 5.5.0
 _ZN4Qt3D19QFrameGraphSelector19setSelectionFunctorE14QSharedPointerINS_26QFrameGraphSelectorFunctorEE@Base 5.5.0
 _ZN4Qt3D19QFrameGraphSelector4copyEPKNS_5QNodeE@Base 5.5.0
 _ZN4Qt3D19QFrameGraphSelectorC1EPNS_5QNodeE@Base 5.5.0
 _ZN4Qt3D19QFrameGraphSelectorC2EPNS_5QNodeE@Base 5.5.0
 _ZN4Qt3D19QFrameGraphSelectorD0Ev@Base 5.5.0
 _ZN4Qt3D19QFrameGraphSelectorD1Ev@Base 5.5.0
 _ZN4Qt3D19QFrameGraphSelectorD2Ev@Base 5.5.0
 _ZN4Qt3D19QLayerFilterPrivateC1Ev@Base 5.5.0
 _ZN4Qt3D19QLayerFilterPrivateC2Ev@Base 5.5.0
 _ZN4Qt3D20QAbstractMeshPrivateC1Ev@Base 5.5.0
 _ZN4Qt3D20QAbstractMeshPrivateC2Ev@Base 5.5.0
 _ZN4Qt3D20QTextureCubeMapArray11qt_metacallEN11QMetaObject4CallEiPPv@Base 5.5.0
 _ZN4Qt3D20QTextureCubeMapArray11qt_metacastEPKc@Base 5.5.0
 _ZN4Qt3D20QTextureCubeMapArray16staticMetaObjectE@Base 5.5.0
 _ZN4Qt3D20QTextureCubeMapArrayC1EPNS_5QNodeE@Base 5.5.0
 _ZN4Qt3D20QTextureCubeMapArrayC2EPNS_5QNodeE@Base 5.5.0
 _ZN4Qt3D20QTextureCubeMapArrayD0Ev@Base 5.5.0
 _ZN4Qt3D20QTextureCubeMapArrayD1Ev@Base 5.5.0
 _ZN4Qt3D20QTextureCubeMapArrayD2Ev@Base 5.5.0
 _ZN4Qt3D21QAbstractLightPrivateC1Ev@Base 5.5.0
 _ZN4Qt3D21QAbstractLightPrivateC2Ev@Base 5.5.0
 _ZN4Qt3D21QAbstractTextureImage11qt_metacallEN11QMetaObject4CallEiPPv@Base 5.5.0
 _ZN4Qt3D21QAbstractTextureImage11qt_metacastEPKc@Base 5.5.0
 _ZN4Qt3D21QAbstractTextureImage12layerChangedEv@Base 5.5.0
 _ZN4Qt3D21QAbstractTextureImage14setCubeMapFaceENS_24QAbstractTextureProvider11CubeMapFaceE@Base 5.5.0
 _ZN4Qt3D21QAbstractTextureImage14setMipmapLevelEi@Base 5.5.0
 _ZN4Qt3D21QAbstractTextureImage16staticMetaObjectE@Base 5.5.0
 _ZN4Qt3D21QAbstractTextureImage18cubeMapFaceChangedEv@Base 5.5.0
 _ZN4Qt3D21QAbstractTextureImage18mipmapLevelChangedEv@Base 5.5.0
 _ZN4Qt3D21QAbstractTextureImage4copyEPKNS_5QNodeE@Base 5.5.0
 _ZN4Qt3D21QAbstractTextureImage6updateEv@Base 5.5.0
 _ZN4Qt3D21QAbstractTextureImage8setLayerEi@Base 5.5.0
 _ZN4Qt3D21QAbstractTextureImageC1EPNS_5QNodeE@Base 5.5.0
 _ZN4Qt3D21QAbstractTextureImageC1ERNS_28QAbstractTextureImagePrivateEPNS_5QNodeE@Base 5.5.0
 _ZN4Qt3D21QAbstractTextureImageC2EPNS_5QNodeE@Base 5.5.0
 _ZN4Qt3D21QAbstractTextureImageC2ERNS_28QAbstractTextureImagePrivateEPNS_5QNodeE@Base 5.5.0
 _ZN4Qt3D21QAbstractTextureImageD0Ev@Base 5.5.0
 _ZN4Qt3D21QAbstractTextureImageD1Ev@Base 5.5.0
 _ZN4Qt3D21QAbstractTextureImageD2Ev@Base 5.5.0
 _ZN4Qt3D21QRenderTargetSelector11qt_metacallEN11QMetaObject4CallEiPPv@Base 5.5.0
 _ZN4Qt3D21QRenderTargetSelector11qt_metacastEPKc@Base 5.5.0
 _ZN4Qt3D21QRenderTargetSelector13targetChangedEv@Base 5.5.0
 _ZN4Qt3D21QRenderTargetSelector14setDrawBuffersERK5QListINS_17QRenderAttachment20RenderAttachmentTypeEE@Base 5.5.0
 _ZN4Qt3D21QRenderTargetSelector16staticMetaObjectE@Base 5.5.0
 _ZN4Qt3D21QRenderTargetSelector4copyEPKNS_5QNodeE@Base 5.5.0
 _ZN4Qt3D21QRenderTargetSelector9setTargetEPNS_13QRenderTargetE@Base 5.5.0
 _ZN4Qt3D21QRenderTargetSelectorC1EPNS_5QNodeE@Base 5.5.0
 _ZN4Qt3D21QRenderTargetSelectorC1ERNS_28QRenderTargetSelectorPrivateEPNS_5QNodeE@Base 5.5.0
 _ZN4Qt3D21QRenderTargetSelectorC2EPNS_5QNodeE@Base 5.5.0
 _ZN4Qt3D21QRenderTargetSelectorC2ERNS_28QRenderTargetSelectorPrivateEPNS_5QNodeE@Base 5.5.0
 _ZN4Qt3D21QTexture2DMultisample11qt_metacallEN11QMetaObject4CallEiPPv@Base 5.5.0
 _ZN4Qt3D21QTexture2DMultisample11qt_metacastEPKc@Base 5.5.0
 _ZN4Qt3D21QTexture2DMultisample16staticMetaObjectE@Base 5.5.0
 _ZN4Qt3D21QTexture2DMultisampleC1EPNS_5QNodeE@Base 5.5.0
 _ZN4Qt3D21QTexture2DMultisampleC2EPNS_5QNodeE@Base 5.5.0
 _ZN4Qt3D21QTexture2DMultisampleD0Ev@Base 5.5.0
 _ZN4Qt3D21QTexture2DMultisampleD1Ev@Base 5.5.0
 _ZN4Qt3D21QTexture2DMultisampleD2Ev@Base 5.5.0
 _ZN4Qt3D23QPerVertexColorMaterial11qt_metacallEN11QMetaObject4CallEiPPv@Base 5.5.0
 _ZN4Qt3D23QPerVertexColorMaterial11qt_metacastEPKc@Base 5.5.0
 _ZN4Qt3D23QPerVertexColorMaterial16staticMetaObjectE@Base 5.5.0
 _ZN4Qt3D23QPerVertexColorMaterialC1EPNS_5QNodeE@Base 5.5.0
 _ZN4Qt3D23QPerVertexColorMaterialC2EPNS_5QNodeE@Base 5.5.0
 _ZN4Qt3D23QPerVertexColorMaterialD0Ev@Base 5.5.0
 _ZN4Qt3D23QPerVertexColorMaterialD1Ev@Base 5.5.0
 _ZN4Qt3D23QPerVertexColorMaterialD2Ev@Base 5.5.0
 _ZN4Qt3D24QAbstractTextureProvider11qt_metacallEN11QMetaObject4CallEiPPv@Base 5.5.0
 _ZN4Qt3D24QAbstractTextureProvider11qt_metacastEPKc@Base 5.5.0
 _ZN4Qt3D24QAbstractTextureProvider11setWrapModeERKNS_16QTextureWrapModeE@Base 5.5.0
 _ZN4Qt3D24QAbstractTextureProvider12depthChangedEv@Base 5.5.0
 _ZN4Qt3D24QAbstractTextureProvider12widthChangedEv@Base 5.5.0
 _ZN4Qt3D24QAbstractTextureProvider13formatChangedEv@Base 5.5.0
 _ZN4Qt3D24QAbstractTextureProvider13heightChangedEv@Base 5.5.0
 _ZN4Qt3D24QAbstractTextureProvider13statusChangedEv@Base 5.5.0
 _ZN4Qt3D24QAbstractTextureProvider13uniqueChangedEv@Base 5.5.0
 _ZN4Qt3D24QAbstractTextureProvider15addTextureImageEPNS_21QAbstractTextureImageE@Base 5.5.0
 _ZN4Qt3D24QAbstractTextureProvider16setMaximumLayersEi@Base 5.5.0
 _ZN4Qt3D24QAbstractTextureProvider16staticMetaObjectE@Base 5.5.0
 _ZN4Qt3D24QAbstractTextureProvider17setComparisonModeENS0_14ComparisonModeE@Base 5.5.0
 _ZN4Qt3D24QAbstractTextureProvider18removeTextureImageEPNS_21QAbstractTextureImageE@Base 5.5.0
 _ZN4Qt3D24QAbstractTextureProvider18setGenerateMipMapsEb@Base 5.5.0
 _ZN4Qt3D24QAbstractTextureProvider20maximumLayersChangedEv@Base 5.5.0
 _ZN4Qt3D24QAbstractTextureProvider20setMaximumAnisotropyEf@Base 5.5.0
 _ZN4Qt3D24QAbstractTextureProvider21comparisonModeChangedEv@Base 5.5.0
 _ZN4Qt3D24QAbstractTextureProvider21setComparisonFunctionENS0_18ComparisonFunctionE@Base 5.5.0
 _ZN4Qt3D24QAbstractTextureProvider21setMinificationFilterENS0_6FilterE@Base 5.5.0
 _ZN4Qt3D24QAbstractTextureProvider22generateMipMapsChangedEv@Base 5.5.0
 _ZN4Qt3D24QAbstractTextureProvider22setMagnificationFilterENS0_6FilterE@Base 5.5.0
 _ZN4Qt3D24QAbstractTextureProvider24maximumAnisotropyChangedEv@Base 5.5.0
 _ZN4Qt3D24QAbstractTextureProvider25comparisonFunctionChangedEv@Base 5.5.0
 _ZN4Qt3D24QAbstractTextureProvider25minificationFilterChangedEv@Base 5.5.0
 _ZN4Qt3D24QAbstractTextureProvider26magnificationFilterChangedEv@Base 5.5.0
 _ZN4Qt3D24QAbstractTextureProvider4copyEPKNS_5QNodeE@Base 5.5.0
 _ZN4Qt3D24QAbstractTextureProvider7setSizeEiii@Base 5.5.0
 _ZN4Qt3D24QAbstractTextureProvider8setDepthEi@Base 5.5.0
 _ZN4Qt3D24QAbstractTextureProvider8setWidthEi@Base 5.5.0
 _ZN4Qt3D24QAbstractTextureProvider8wrapModeEv@Base 5.5.0
 _ZN4Qt3D24QAbstractTextureProvider9setFormatENS0_13TextureFormatE@Base 5.5.0
 _ZN4Qt3D24QAbstractTextureProvider9setHeightEi@Base 5.5.0
 _ZN4Qt3D24QAbstractTextureProvider9setStatusENS0_6StatusE@Base 5.5.0
 _ZN4Qt3D24QAbstractTextureProvider9setUniqueEb@Base 5.5.0
 _ZN4Qt3D24QAbstractTextureProviderC1ENS0_6TargetEPNS_5QNodeE@Base 5.5.0
 _ZN4Qt3D24QAbstractTextureProviderC1EPNS_5QNodeE@Base 5.5.0
 _ZN4Qt3D24QAbstractTextureProviderC1ERNS_31QAbstractTextureProviderPrivateEPNS_5QNodeE@Base 5.5.0
 _ZN4Qt3D24QAbstractTextureProviderC2ENS0_6TargetEPNS_5QNodeE@Base 5.5.0
 _ZN4Qt3D24QAbstractTextureProviderC2EPNS_5QNodeE@Base 5.5.0
 _ZN4Qt3D24QAbstractTextureProviderC2ERNS_31QAbstractTextureProviderPrivateEPNS_5QNodeE@Base 5.5.0
 _ZN4Qt3D24QAbstractTextureProviderD0Ev@Base 5.5.0
 _ZN4Qt3D24QAbstractTextureProviderD1Ev@Base 5.5.0
 _ZN4Qt3D24QAbstractTextureProviderD2Ev@Base 5.5.0
 _ZN4Qt3D24QDirectionalLightPrivateC1Ev@Base 5.5.0
 _ZN4Qt3D24QDirectionalLightPrivateC2Ev@Base 5.5.0
 _ZN4Qt3D25QNormalDiffuseMapMaterial10setAmbientERK6QColor@Base 5.5.0
 _ZN4Qt3D25QNormalDiffuseMapMaterial10setDiffuseEPNS_24QAbstractTextureProviderE@Base 5.5.0
 _ZN4Qt3D25QNormalDiffuseMapMaterial11qt_metacallEN11QMetaObject4CallEiPPv@Base 5.5.0
 _ZN4Qt3D25QNormalDiffuseMapMaterial11qt_metacastEPKc@Base 5.5.0
 _ZN4Qt3D25QNormalDiffuseMapMaterial11setSpecularERK6QColor@Base 5.5.0
 _ZN4Qt3D25QNormalDiffuseMapMaterial12setShininessEf@Base 5.5.0
 _ZN4Qt3D25QNormalDiffuseMapMaterial13normalChangedEv@Base 5.5.0
 _ZN4Qt3D25QNormalDiffuseMapMaterial14ambientChangedEv@Base 5.5.0
 _ZN4Qt3D25QNormalDiffuseMapMaterial14diffuseChangedEv@Base 5.5.0
 _ZN4Qt3D25QNormalDiffuseMapMaterial15setTextureScaleEf@Base 5.5.0
 _ZN4Qt3D25QNormalDiffuseMapMaterial15specularChangedEv@Base 5.5.0
 _ZN4Qt3D25QNormalDiffuseMapMaterial16shininessChangedEv@Base 5.5.0
 _ZN4Qt3D25QNormalDiffuseMapMaterial16staticMetaObjectE@Base 5.5.0
 _ZN4Qt3D25QNormalDiffuseMapMaterial19textureScaleChangedEv@Base 5.5.0
 _ZN4Qt3D25QNormalDiffuseMapMaterial9setNormalEPNS_24QAbstractTextureProviderE@Base 5.5.0
 _ZN4Qt3D25QNormalDiffuseMapMaterialC1EPNS_5QNodeE@Base 5.5.0
 _ZN4Qt3D25QNormalDiffuseMapMaterialC1ERNS_32QNormalDiffuseMapMaterialPrivateEPNS_5QNodeE@Base 5.5.0
 _ZN4Qt3D25QNormalDiffuseMapMaterialC2EPNS_5QNodeE@Base 5.5.0
 _ZN4Qt3D25QNormalDiffuseMapMaterialC2ERNS_32QNormalDiffuseMapMaterialPrivateEPNS_5QNodeE@Base 5.5.0
 _ZN4Qt3D25QNormalDiffuseMapMaterialD0Ev@Base 5.5.0
 _ZN4Qt3D25QNormalDiffuseMapMaterialD1Ev@Base 5.5.0
 _ZN4Qt3D25QNormalDiffuseMapMaterialD2Ev@Base 5.5.0
 _ZN4Qt3D26QTexture2DMultisampleArray11qt_metacallEN11QMetaObject4CallEiPPv@Base 5.5.0
 _ZN4Qt3D26QTexture2DMultisampleArray11qt_metacastEPKc@Base 5.5.0
 _ZN4Qt3D26QTexture2DMultisampleArray16staticMetaObjectE@Base 5.5.0
 _ZN4Qt3D26QTexture2DMultisampleArrayC1EPNS_5QNodeE@Base 5.5.0
 _ZN4Qt3D26QTexture2DMultisampleArrayC2EPNS_5QNodeE@Base 5.5.0
 _ZN4Qt3D26QTexture2DMultisampleArrayD0Ev@Base 5.5.0
 _ZN4Qt3D26QTexture2DMultisampleArrayD1Ev@Base 5.5.0
 _ZN4Qt3D26QTexture2DMultisampleArrayD2Ev@Base 5.5.0
 _ZN4Qt3D27QDiffuseSpecularMapMaterial10setAmbientERK6QColor@Base 5.5.0
 _ZN4Qt3D27QDiffuseSpecularMapMaterial10setDiffuseEPNS_24QAbstractTextureProviderE@Base 5.5.0
 _ZN4Qt3D27QDiffuseSpecularMapMaterial11qt_metacallEN11QMetaObject4CallEiPPv@Base 5.5.0
 _ZN4Qt3D27QDiffuseSpecularMapMaterial11qt_metacastEPKc@Base 5.5.0
 _ZN4Qt3D27QDiffuseSpecularMapMaterial11setSpecularEPNS_24QAbstractTextureProviderE@Base 5.5.0
 _ZN4Qt3D27QDiffuseSpecularMapMaterial12setShininessEf@Base 5.5.0
 _ZN4Qt3D27QDiffuseSpecularMapMaterial14ambientChangedEv@Base 5.5.0
 _ZN4Qt3D27QDiffuseSpecularMapMaterial14diffuseChangedEv@Base 5.5.0
 _ZN4Qt3D27QDiffuseSpecularMapMaterial15setTextureScaleEf@Base 5.5.0
 _ZN4Qt3D27QDiffuseSpecularMapMaterial15specularChangedEv@Base 5.5.0
 _ZN4Qt3D27QDiffuseSpecularMapMaterial16shininessChangedEv@Base 5.5.0
 _ZN4Qt3D27QDiffuseSpecularMapMaterial16staticMetaObjectE@Base 5.5.0
 _ZN4Qt3D27QDiffuseSpecularMapMaterial19textureScaleChangedEv@Base 5.5.0
 _ZN4Qt3D27QDiffuseSpecularMapMaterialC1EPNS_5QNodeE@Base 5.5.0
 _ZN4Qt3D27QDiffuseSpecularMapMaterialC2EPNS_5QNodeE@Base 5.5.0
 _ZN4Qt3D27QDiffuseSpecularMapMaterialD0Ev@Base 5.5.0
 _ZN4Qt3D27QDiffuseSpecularMapMaterialD1Ev@Base 5.5.0
 _ZN4Qt3D27QDiffuseSpecularMapMaterialD2Ev@Base 5.5.0
 _ZN4Qt3D30QNormalDiffuseMapAlphaMaterial11qt_metacallEN11QMetaObject4CallEiPPv@Base 5.5.0
 _ZN4Qt3D30QNormalDiffuseMapAlphaMaterial11qt_metacastEPKc@Base 5.5.0
 _ZN4Qt3D30QNormalDiffuseMapAlphaMaterial16staticMetaObjectE@Base 5.5.0
 _ZN4Qt3D30QNormalDiffuseMapAlphaMaterialC1EPNS_5QNodeE@Base 5.5.0
 _ZN4Qt3D30QNormalDiffuseMapAlphaMaterialC2EPNS_5QNodeE@Base 5.5.0
 _ZN4Qt3D30QNormalDiffuseMapAlphaMaterialD0Ev@Base 5.5.0
 _ZN4Qt3D30QNormalDiffuseMapAlphaMaterialD1Ev@Base 5.5.0
 _ZN4Qt3D30QNormalDiffuseMapAlphaMaterialD2Ev@Base 5.5.0
 _ZN4Qt3D33QNormalDiffuseSpecularMapMaterial10setAmbientERK6QColor@Base 5.5.0
 _ZN4Qt3D33QNormalDiffuseSpecularMapMaterial10setDiffuseEPNS_24QAbstractTextureProviderE@Base 5.5.0
 _ZN4Qt3D33QNormalDiffuseSpecularMapMaterial11qt_metacallEN11QMetaObject4CallEiPPv@Base 5.5.0
 _ZN4Qt3D33QNormalDiffuseSpecularMapMaterial11qt_metacastEPKc@Base 5.5.0
 _ZN4Qt3D33QNormalDiffuseSpecularMapMaterial11setSpecularEPNS_24QAbstractTextureProviderE@Base 5.5.0
 _ZN4Qt3D33QNormalDiffuseSpecularMapMaterial12setShininessEf@Base 5.5.0
 _ZN4Qt3D33QNormalDiffuseSpecularMapMaterial13normalChangedEv@Base 5.5.0
 _ZN4Qt3D33QNormalDiffuseSpecularMapMaterial14ambientChangedEv@Base 5.5.0
 _ZN4Qt3D33QNormalDiffuseSpecularMapMaterial14diffuseChangedEv@Base 5.5.0
 _ZN4Qt3D33QNormalDiffuseSpecularMapMaterial15setTextureScaleEf@Base 5.5.0
 _ZN4Qt3D33QNormalDiffuseSpecularMapMaterial15specularChangedEv@Base 5.5.0
 _ZN4Qt3D33QNormalDiffuseSpecularMapMaterial16shininessChangedEv@Base 5.5.0
 _ZN4Qt3D33QNormalDiffuseSpecularMapMaterial16staticMetaObjectE@Base 5.5.0
 _ZN4Qt3D33QNormalDiffuseSpecularMapMaterial19textureScaleChangedEv@Base 5.5.0
 _ZN4Qt3D33QNormalDiffuseSpecularMapMaterial9setNormalEPNS_24QAbstractTextureProviderE@Base 5.5.0
 _ZN4Qt3D33QNormalDiffuseSpecularMapMaterialC1EPNS_5QNodeE@Base 5.5.0
 _ZN4Qt3D33QNormalDiffuseSpecularMapMaterialC1ERNS_40QNormalDiffuseSpecularMapMaterialPrivateEPNS_5QNodeE@Base 5.5.0
 _ZN4Qt3D33QNormalDiffuseSpecularMapMaterialC2EPNS_5QNodeE@Base 5.5.0
 _ZN4Qt3D33QNormalDiffuseSpecularMapMaterialC2ERNS_40QNormalDiffuseSpecularMapMaterialPrivateEPNS_5QNodeE@Base 5.5.0
 _ZN4Qt3D33QNormalDiffuseSpecularMapMaterialD0Ev@Base 5.5.0
 _ZN4Qt3D33QNormalDiffuseSpecularMapMaterialD1Ev@Base 5.5.0
 _ZN4Qt3D33QNormalDiffuseSpecularMapMaterialD2Ev@Base 5.5.0
 _ZN4Qt3D5QMesh11qt_metacallEN11QMetaObject4CallEiPPv@Base 5.5.0
 _ZN4Qt3D5QMesh11qt_metacastEPKc@Base 5.5.0
 _ZN4Qt3D5QMesh13sourceChangedEv@Base 5.5.0
 _ZN4Qt3D5QMesh16staticMetaObjectE@Base 5.5.0
 _ZN4Qt3D5QMesh4copyEPKNS_5QNodeE@Base 5.5.0
 _ZN4Qt3D5QMesh9setSourceERK4QUrl@Base 5.5.0
 _ZN4Qt3D5QMeshC1EPNS_5QNodeE@Base 5.5.0
 _ZN4Qt3D5QMeshC1ERNS_12QMeshPrivateEPNS_5QNodeE@Base 5.5.0
 _ZN4Qt3D5QMeshC2EPNS_5QNodeE@Base 5.5.0
 _ZN4Qt3D5QMeshC2ERNS_12QMeshPrivateEPNS_5QNodeE@Base 5.5.0
 _ZN4Qt3D6Buffer4bindEv@Base 5.5.0
 _ZN4Qt3D6Buffer6createEv@Base 5.5.0
 _ZN4Qt3D6Buffer6uploadE13QOpenGLBuffer@Base 5.5.0
 _ZN4Qt3D6Buffer8setUsageEN13QOpenGLBuffer12UsagePatternE@Base 5.5.0
 _ZN4Qt3D6BufferC1EN13QOpenGLBuffer4TypeE@Base 5.5.0
 _ZN4Qt3D6BufferC1ERNS_13BufferPrivateEN13QOpenGLBuffer4TypeE@Base 5.5.0
 _ZN4Qt3D6BufferC2EN13QOpenGLBuffer4TypeE@Base 5.5.0
 _ZN4Qt3D6BufferC2ERNS_13BufferPrivateEN13QOpenGLBuffer4TypeE@Base 5.5.0
 _ZN4Qt3D6QLayer11qt_metacallEN11QMetaObject4CallEiPPv@Base 5.5.0
 _ZN4Qt3D6QLayer11qt_metacastEPKc@Base 5.5.0
 _ZN4Qt3D6QLayer12namesChangedEv@Base 5.5.0
 _ZN4Qt3D6QLayer16staticMetaObjectE@Base 5.5.0
 _ZN4Qt3D6QLayer4copyEPKNS_5QNodeE@Base 5.5.0
 _ZN4Qt3D6QLayer8setNamesERK11QStringList@Base 5.5.0
 _ZN4Qt3D6QLayerC1EPNS_5QNodeE@Base 5.5.0
 _ZN4Qt3D6QLayerC1ERNS_13QLayerPrivateEPNS_5QNodeE@Base 5.5.0
 _ZN4Qt3D6QLayerC2EPNS_5QNodeE@Base 5.5.0
 _ZN4Qt3D6QLayerC2ERNS_13QLayerPrivateEPNS_5QNodeE@Base 5.5.0
 _ZN4Qt3D6Render20QAbstractSceneLoader11qt_metacallEN11QMetaObject4CallEiPPv@Base 5.5.0
 _ZN4Qt3D6Render20QAbstractSceneLoader11qt_metacastEPKc@Base 5.5.0
 _ZN4Qt3D6Render20QAbstractSceneLoader13sourceChangedEv@Base 5.5.0
 _ZN4Qt3D6Render20QAbstractSceneLoader13statusChangedEv@Base 5.5.0
 _ZN4Qt3D6Render20QAbstractSceneLoader16staticMetaObjectE@Base 5.5.0
 _ZN4Qt3D6Render20QAbstractSceneLoader4copyEPKNS_5QNodeE@Base 5.5.0
 _ZN4Qt3D6Render20QAbstractSceneLoader9setSourceERK4QUrl@Base 5.5.0
 _ZN4Qt3D6Render20QAbstractSceneLoader9setStatusENS1_6StatusE@Base 5.5.0
 _ZN4Qt3D6Render20QAbstractSceneLoaderC1EPNS_5QNodeE@Base 5.5.0
 _ZN4Qt3D6Render20QAbstractSceneLoaderC1ERNS0_27QAbstractSceneLoaderPrivateEPNS_5QNodeE@Base 5.5.0
 _ZN4Qt3D6Render20QAbstractSceneLoaderC2EPNS_5QNodeE@Base 5.5.0
 _ZN4Qt3D6Render20QAbstractSceneLoaderC2ERNS0_27QAbstractSceneLoaderPrivateEPNS_5QNodeE@Base 5.5.0
 _ZN4Qt3D6Render27QAbstractSceneLoaderPrivateC1Ev@Base 5.5.0
 _ZN4Qt3D6Render27QAbstractSceneLoaderPrivateC2Ev@Base 5.5.0
 _ZN4Qt3D7QEffect11qt_metacallEN11QMetaObject4CallEiPPv@Base 5.5.0
 _ZN4Qt3D7QEffect11qt_metacastEPKc@Base 5.5.0
 _ZN4Qt3D7QEffect12addParameterEPNS_10QParameterE@Base 5.5.0
 _ZN4Qt3D7QEffect12addTechniqueEPNS_10QTechniqueE@Base 5.5.0
 _ZN4Qt3D7QEffect15removeParameterEPNS_10QParameterE@Base 5.5.0
 _ZN4Qt3D7QEffect15removeTechniqueEPNS_10QTechniqueE@Base 5.5.0
 _ZN4Qt3D7QEffect16staticMetaObjectE@Base 5.5.0
 _ZN4Qt3D7QEffect4copyEPKNS_5QNodeE@Base 5.5.0
 _ZN4Qt3D7QEffectC1EPNS_5QNodeE@Base 5.5.0
 _ZN4Qt3D7QEffectC1ERNS_14QEffectPrivateEPNS_5QNodeE@Base 5.5.0
 _ZN4Qt3D7QEffectC2EPNS_5QNodeE@Base 5.5.0
 _ZN4Qt3D7QEffectC2ERNS_14QEffectPrivateEPNS_5QNodeE@Base 5.5.0
 _ZN4Qt3D7QNoDraw11qt_metacallEN11QMetaObject4CallEiPPv@Base 5.5.0
 _ZN4Qt3D7QNoDraw11qt_metacastEPKc@Base 5.5.0
 _ZN4Qt3D7QNoDraw16staticMetaObjectE@Base 5.5.0
 _ZN4Qt3D7QNoDrawC1EPNS_5QNodeE@Base 5.5.0
 _ZN4Qt3D7QNoDrawC2EPNS_5QNodeE@Base 5.5.0
 _ZN4Qt3D7QNoDrawD0Ev@Base 5.5.0
 _ZN4Qt3D7QNoDrawD1Ev@Base 5.5.0
 _ZN4Qt3D7QNoDrawD2Ev@Base 5.5.0
 _ZN4Qt3D9Attribute4dumpEi@Base 5.5.0
 _ZN4Qt3D9AttributeC1E14QSharedPointerINS_15QAbstractBufferEEiiii@Base 5.5.0
 _ZN4Qt3D9AttributeC1ERNS_16AttributePrivateE14QSharedPointerINS_15QAbstractBufferEEiiii@Base 5.5.0
 _ZN4Qt3D9AttributeC2E14QSharedPointerINS_15QAbstractBufferEEiiii@Base 5.5.0
 _ZN4Qt3D9AttributeC2ERNS_16AttributePrivateE14QSharedPointerINS_15QAbstractBufferEEiiii@Base 5.5.0
 _ZN4Qt3D9QCullFace11modeChangedEv@Base 5.5.0
 _ZN4Qt3D9QCullFace11qt_metacallEN11QMetaObject4CallEiPPv@Base 5.5.0
 _ZN4Qt3D9QCullFace11qt_metacastEPKc@Base 5.5.0
 _ZN4Qt3D9QCullFace16staticMetaObjectE@Base 5.5.0
 _ZN4Qt3D9QCullFace4copyEPKNS_5QNodeE@Base 5.5.0
 _ZN4Qt3D9QCullFace7setModeENS0_11CullingModeE@Base 5.5.0
 _ZN4Qt3D9QCullFaceC1EPNS_5QNodeE@Base 5.5.0
 _ZN4Qt3D9QCullFaceC2EPNS_5QNodeE@Base 5.5.0
 _ZN4Qt3D9QMaterial11qt_metacallEN11QMetaObject4CallEiPPv@Base 5.5.0
 _ZN4Qt3D9QMaterial11qt_metacastEPKc@Base 5.5.0
 _ZN4Qt3D9QMaterial12addParameterEPNS_10QParameterE@Base 5.5.0
 _ZN4Qt3D9QMaterial13effectChangedEv@Base 5.5.0
 _ZN4Qt3D9QMaterial15removeParameterEPNS_10QParameterE@Base 5.5.0
 _ZN4Qt3D9QMaterial16staticMetaObjectE@Base 5.5.0
 _ZN4Qt3D9QMaterial19setTextureParameterE7QStringPNS_24QAbstractTextureProviderE@Base 5.5.0
 _ZN4Qt3D9QMaterial4copyEPKNS_5QNodeE@Base 5.5.0
 _ZN4Qt3D9QMaterial9setEffectEPNS_7QEffectE@Base 5.5.0
 _ZN4Qt3D9QMaterialC1EPNS_5QNodeE@Base 5.5.0
 _ZN4Qt3D9QMaterialC1ERNS_16QMaterialPrivateEPNS_5QNodeE@Base 5.5.0
 _ZN4Qt3D9QMaterialC2EPNS_5QNodeE@Base 5.5.0
 _ZN4Qt3D9QMaterialC2ERNS_16QMaterialPrivateEPNS_5QNodeE@Base 5.5.0
 _ZN4Qt3D9QMeshData12addAttributeERK7QStringRK14QSharedPointerINS_18QAbstractAttributeEE@Base 5.5.0
 _ZN4Qt3D9QMeshData14setBoundingBoxERKNS_23QAxisAlignedBoundingBoxE@Base 5.5.0
 _ZN4Qt3D9QMeshData16setPrimitiveTypeENS0_13PrimitiveTypeE@Base 5.5.0
 _ZN4Qt3D9QMeshData17setIndexAttributeERK14QSharedPointerINS_18QAbstractAttributeEE@Base 5.5.0
 _ZN4Qt3D9QMeshData19setVerticesPerPatchEi@Base 5.5.0
 _ZN4Qt3D9QMeshData25defaultColorAttributeNameEv@Base 5.5.0
 _ZN4Qt3D9QMeshData26computeBoundsFromAttributeERK7QString@Base 5.5.0
 _ZN4Qt3D9QMeshData26defaultNormalAttributeNameEv@Base 5.5.0
 _ZN4Qt3D9QMeshData27defaultTangentAttributeNameEv@Base 5.5.0
 _ZN4Qt3D9QMeshData28defaultPositionAttributeNameEv@Base 5.5.0
 _ZN4Qt3D9QMeshData37defaultTextureCoordinateAttributeNameEv@Base 5.5.0
 _ZN4Qt3D9QMeshDataC1ENS0_13PrimitiveTypeE@Base 5.5.0
 _ZN4Qt3D9QMeshDataC1ERNS_16QMeshDataPrivateE@Base 5.5.0
 _ZN4Qt3D9QMeshDataC2ENS0_13PrimitiveTypeE@Base 5.5.0
 _ZN4Qt3D9QMeshDataC2ERNS_16QMeshDataPrivateE@Base 5.5.0
 _ZN4Qt3D9QMeshDataD0Ev@Base 5.5.0
 _ZN4Qt3D9QMeshDataD1Ev@Base 5.5.0
 _ZN4Qt3D9QMeshDataD2Ev@Base 5.5.0
 _ZN4Qt3D9QStateSet11qt_metacallEN11QMetaObject4CallEiPPv@Base 5.5.0
 _ZN4Qt3D9QStateSet11qt_metacastEPKc@Base 5.5.0
 _ZN4Qt3D9QStateSet14addRenderStateEPNS_12QRenderStateE@Base 5.5.0
 _ZN4Qt3D9QStateSet16staticMetaObjectE@Base 5.5.0
 _ZN4Qt3D9QStateSet17removeRenderStateEPNS_12QRenderStateE@Base 5.5.0
 _ZN4Qt3D9QStateSet4copyEPKNS_5QNodeE@Base 5.5.0
 _ZN4Qt3D9QStateSetC1EPNS_5QNodeE@Base 5.5.0
 _ZN4Qt3D9QStateSetC1ERNS_16QStateSetPrivateEPNS_5QNodeE@Base 5.5.0
 _ZN4Qt3D9QStateSetC2EPNS_5QNodeE@Base 5.5.0
 _ZN4Qt3D9QStateSetC2ERNS_16QStateSetPrivateEPNS_5QNodeE@Base 5.5.0
 _ZN4Qt3D9QStateSetD0Ev@Base 5.5.0
 _ZN4Qt3D9QStateSetD1Ev@Base 5.5.0
 _ZN4Qt3D9QStateSetD2Ev@Base 5.5.0
 _ZN4Qt3D9QViewport11qt_metacallEN11QMetaObject4CallEiPPv@Base 5.5.0
 _ZN4Qt3D9QViewport11qt_metacastEPKc@Base 5.5.0
 _ZN4Qt3D9QViewport11rectChangedEv@Base 5.5.0
 _ZN4Qt3D9QViewport13setClearColorERK6QColor@Base 5.5.0
 _ZN4Qt3D9QViewport16staticMetaObjectE@Base 5.5.0
 _ZN4Qt3D9QViewport17clearColorChangedEv@Base 5.5.0
 _ZN4Qt3D9QViewport4copyEPKNS_5QNodeE@Base 5.5.0
 _ZN4Qt3D9QViewport7setRectERK6QRectF@Base 5.5.0
 _ZN4Qt3D9QViewportC1EPNS_5QNodeE@Base 5.5.0
 _ZN4Qt3D9QViewportC1ERNS_16QViewportPrivateEPNS_5QNodeE@Base 5.5.0
 _ZN4Qt3D9QViewportC2EPNS_5QNodeE@Base 5.5.0
 _ZN4Qt3D9QViewportC2ERNS_16QViewportPrivateEPNS_5QNodeE@Base 5.5.0
 _ZNK4Qt3D10QAlphaTest10metaObjectEv@Base 5.5.0
 _ZNK4Qt3D10QAlphaTest4funcEv@Base 5.5.0
 _ZNK4Qt3D10QAlphaTest5clampEv@Base 5.5.0
 _ZNK4Qt3D10QColorMask10metaObjectEv@Base 5.5.0
 _ZNK4Qt3D10QColorMask5isRedEv@Base 5.5.0
 _ZNK4Qt3D10QColorMask6isBlueEv@Base 5.5.0
 _ZNK4Qt3D10QColorMask7isAlphaEv@Base 5.5.0
 _ZNK4Qt3D10QColorMask7isGreenEv@Base 5.5.0
 _ZNK4Qt3D10QDepthMask10metaObjectEv@Base 5.5.0
 _ZNK4Qt3D10QDepthMask4maskEv@Base 5.5.0
 _ZNK4Qt3D10QDepthTest10metaObjectEv@Base 5.5.0
 _ZNK4Qt3D10QDepthTest4funcEv@Base 5.5.0
 _ZNK4Qt3D10QDithering10metaObjectEv@Base 5.5.0
 _ZNK4Qt3D10QFrontFace10metaObjectEv@Base 5.5.0
 _ZNK4Qt3D10QFrontFace9directionEv@Base 5.5.0
 _ZNK4Qt3D10QParameter10metaObjectEv@Base 5.5.0
 _ZNK4Qt3D10QParameter4nameEv@Base 5.5.0
 _ZNK4Qt3D10QParameter5valueEv@Base 5.5.0
 _ZNK4Qt3D10QPlaneMesh10metaObjectEv@Base 5.5.0
 _ZNK4Qt3D10QPlaneMesh11meshFunctorEv@Base 5.5.0
 _ZNK4Qt3D10QPlaneMesh14meshResolutionEv@Base 5.5.0
 _ZNK4Qt3D10QPlaneMesh5widthEv@Base 5.5.0
 _ZNK4Qt3D10QPlaneMesh6heightEv@Base 5.5.0
 _ZNK4Qt3D10QSpotLight10metaObjectEv@Base 5.5.0
 _ZNK4Qt3D10QSpotLight11cutOffAngleEv@Base 5.5.0
 _ZNK4Qt3D10QSpotLight9directionEv@Base 5.5.0
 _ZNK4Qt3D10QTechnique10metaObjectEv@Base 5.5.0
 _ZNK4Qt3D10QTechnique10parametersEv@Base 5.5.0
 _ZNK4Qt3D10QTechnique11annotationsEv@Base 5.5.0
 _ZNK4Qt3D10QTechnique12renderPassesEv@Base 5.5.0
 _ZNK4Qt3D10QTexture1D10metaObjectEv@Base 5.5.0
 _ZNK4Qt3D10QTexture2D10metaObjectEv@Base 5.5.0
 _ZNK4Qt3D10QTexture3D10metaObjectEv@Base 5.5.0
 _ZNK4Qt3D10QTorusMesh10metaObjectEv@Base 5.5.0
 _ZNK4Qt3D10QTorusMesh11meshFunctorEv@Base 5.5.0
 _ZNK4Qt3D10QTorusMesh11minorRadiusEv@Base 5.5.0
 _ZNK4Qt3D10QTorusMesh5ringsEv@Base 5.5.0
 _ZNK4Qt3D10QTorusMesh6radiusEv@Base 5.5.0
 _ZNK4Qt3D10QTorusMesh6slicesEv@Base 5.5.0
 _ZNK4Qt3D11QAnnotation10metaObjectEv@Base 5.5.0
 _ZNK4Qt3D11QAnnotation4nameEv@Base 5.5.0
 _ZNK4Qt3D11QAnnotation5valueEv@Base 5.5.0
 _ZNK4Qt3D11QBlendState10metaObjectEv@Base 5.5.0
 _ZNK4Qt3D11QBlendState6dstRGBEv@Base 5.5.0
 _ZNK4Qt3D11QBlendState6srcRGBEv@Base 5.5.0
 _ZNK4Qt3D11QBlendState8dstAlphaEv@Base 5.5.0
 _ZNK4Qt3D11QBlendState8srcAlphaEv@Base 5.5.0
 _ZNK4Qt3D11QCuboidMesh10metaObjectEv@Base 5.5.0
 _ZNK4Qt3D11QCuboidMesh11meshFunctorEv@Base 5.5.0
 _ZNK4Qt3D11QCuboidMesh16xyMeshResolutionEv@Base 5.5.0
 _ZNK4Qt3D11QCuboidMesh16xzMeshResolutionEv@Base 5.5.0
 _ZNK4Qt3D11QCuboidMesh16yzMeshResolutionEv@Base 5.5.0
 _ZNK4Qt3D11QCuboidMesh7xExtentEv@Base 5.5.0
 _ZNK4Qt3D11QCuboidMesh7yExtentEv@Base 5.5.0
 _ZNK4Qt3D11QCuboidMesh7zExtentEv@Base 5.5.0
 _ZNK4Qt3D11QFrameGraph10metaObjectEv@Base 5.5.0
 _ZNK4Qt3D11QFrameGraph16activeFrameGraphEv@Base 5.5.0
 _ZNK4Qt3D11QPointLight10metaObjectEv@Base 5.5.0
 _ZNK4Qt3D11QRenderPass10attributesEv@Base 5.5.0
 _ZNK4Qt3D11QRenderPass10metaObjectEv@Base 5.5.0
 _ZNK4Qt3D11QRenderPass10parametersEv@Base 5.5.0
 _ZNK4Qt3D11QRenderPass11annotationsEv@Base 5.5.0
 _ZNK4Qt3D11QRenderPass12renderStatesEv@Base 5.5.0
 _ZNK4Qt3D11QRenderPass13shaderProgramEv@Base 5.5.0
 _ZNK4Qt3D11QRenderPass8bindingsEv@Base 5.5.0
 _ZNK4Qt3D11QRenderPass8uniformsEv@Base 5.5.0
 _ZNK4Qt3D11QShaderData10metaObjectEv@Base 5.5.0
 _ZNK4Qt3D11QShaderData14propertyReaderEv@Base 5.5.0
 _ZNK4Qt3D11QSortMethod10metaObjectEv@Base 5.5.0
 _ZNK4Qt3D11QSortMethod8criteriaEv@Base 5.5.0
 _ZNK4Qt3D11QSphereMesh10metaObjectEv@Base 5.5.0
 _ZNK4Qt3D11QSphereMesh11meshFunctorEv@Base 5.5.0
 _ZNK4Qt3D11QSphereMesh16generateTangentsEv@Base 5.5.0
 _ZNK4Qt3D11QSphereMesh5ringsEv@Base 5.5.0
 _ZNK4Qt3D11QSphereMesh6radiusEv@Base 5.5.0
 _ZNK4Qt3D11QSphereMesh6slicesEv@Base 5.5.0
 _ZNK4Qt3D12QClearBuffer10metaObjectEv@Base 5.5.0
 _ZNK4Qt3D12QClearBuffer7buffersEv@Base 5.5.0
 _ZNK4Qt3D12QLayerFilter10metaObjectEv@Base 5.5.0
 _ZNK4Qt3D12QLayerFilter6layersEv@Base 5.5.0
 _ZNK4Qt3D12QRenderState10metaObjectEv@Base 5.5.0
 _ZNK4Qt3D12QRenderState4typeEv@Base 5.5.0
 _ZNK4Qt3D12QSceneLoader10metaObjectEv@Base 5.5.0
 _ZNK4Qt3D12QScissorTest10metaObjectEv@Base 5.5.0
 _ZNK4Qt3D12QScissorTest4leftEv@Base 5.5.0
 _ZNK4Qt3D12QScissorTest5widthEv@Base 5.5.0
 _ZNK4Qt3D12QScissorTest6bottomEv@Base 5.5.0
 _ZNK4Qt3D12QScissorTest6heightEv@Base 5.5.0
 _ZNK4Qt3D12QStencilTest10metaObjectEv@Base 5.5.0
 _ZNK4Qt3D12QStencilTest4funcEv@Base 5.5.0
 _ZNK4Qt3D12QStencilTest4maskEv@Base 5.5.0
 _ZNK4Qt3D12QStencilTest8faceModeEv@Base 5.5.0
 _ZNK4Qt3D13QAbstractMesh10metaObjectEv@Base 5.5.0
 _ZNK4Qt3D13QCylinderMesh10metaObjectEv@Base 5.5.0
 _ZNK4Qt3D13QCylinderMesh11meshFunctorEv@Base 5.5.0
 _ZNK4Qt3D13QCylinderMesh5ringsEv@Base 5.5.0
 _ZNK4Qt3D13QCylinderMesh6lengthEv@Base 5.5.0
 _ZNK4Qt3D13QCylinderMesh6radiusEv@Base 5.5.0
 _ZNK4Qt3D13QCylinderMesh6slicesEv@Base 5.5.0
 _ZNK4Qt3D13QOpenGLFilter10extensionsEv@Base 5.5.0
 _ZNK4Qt3D13QOpenGLFilter10metaObjectEv@Base 5.5.0
 _ZNK4Qt3D13QOpenGLFilter12majorVersionEv@Base 5.5.0
 _ZNK4Qt3D13QOpenGLFilter12minorVersionEv@Base 5.5.0
 _ZNK4Qt3D13QOpenGLFilter3apiEv@Base 5.5.0
 _ZNK4Qt3D13QOpenGLFilter6vendorEv@Base 5.5.0
 _ZNK4Qt3D13QOpenGLFilter7profileEv@Base 5.5.0
 _ZNK4Qt3D13QRenderAspect10metaObjectEv@Base 5.5.0
 _ZNK4Qt3D13QRenderAspect4timeEv@Base 5.5.0
 _ZNK4Qt3D13QRenderTarget10metaObjectEv@Base 5.5.0
 _ZNK4Qt3D13QRenderTarget11attachmentsEv@Base 5.5.0
 _ZNK4Qt3D13QSkyboxEntity10metaObjectEv@Base 5.5.0
 _ZNK4Qt3D13QSkyboxEntity14cameraPositionEv@Base 5.5.0
 _ZNK4Qt3D13QSkyboxEntity8baseNameEv@Base 5.5.0
 _ZNK4Qt3D13QSkyboxEntity9extensionEv@Base 5.5.0
 _ZNK4Qt3D13QTextureImage10metaObjectEv@Base 5.5.0
 _ZNK4Qt3D13QTextureImage11dataFunctorEv@Base 5.5.0
 _ZNK4Qt3D13QTextureImage6sourceEv@Base 5.5.0
 _ZNK4Qt3D14QAbstractLight10metaObjectEv@Base 5.5.0
 _ZNK4Qt3D14QAbstractLight19positionTransformedEv@Base 5.5.0
 _ZNK4Qt3D14QAbstractLight5colorEv@Base 5.5.0
 _ZNK4Qt3D14QAbstractLight8positionEv@Base 5.5.0
 _ZNK4Qt3D14QAbstractLight9intensityEv@Base 5.5.0
 _ZNK4Qt3D14QAlphaCoverage10metaObjectEv@Base 5.5.0
 _ZNK4Qt3D14QBlendEquation10metaObjectEv@Base 5.5.0
 _ZNK4Qt3D14QBlendEquation4modeEv@Base 5.5.0
 _ZNK4Qt3D14QPhongMaterial10metaObjectEv@Base 5.5.0
 _ZNK4Qt3D14QPhongMaterial7ambientEv@Base 5.5.0
 _ZNK4Qt3D14QPhongMaterial7diffuseEv@Base 5.5.0
 _ZNK4Qt3D14QPhongMaterial8specularEv@Base 5.5.0
 _ZNK4Qt3D14QPhongMaterial9shininessEv@Base 5.5.0
 _ZNK4Qt3D14QPolygonOffset10metaObjectEv@Base 5.5.0
 _ZNK4Qt3D14QPolygonOffset5unitsEv@Base 5.5.0
 _ZNK4Qt3D14QPolygonOffset6factorEv@Base 5.5.0
 _ZNK4Qt3D14QShaderProgram10metaObjectEv@Base 5.5.0
 _ZNK4Qt3D14QShaderProgram10shaderCodeENS0_10ShaderTypeE@Base 5.5.0
 _ZNK4Qt3D14QShaderProgram16vertexShaderCodeEv@Base 5.5.0
 _ZNK4Qt3D14QShaderProgram17computeShaderCodeEv@Base 5.5.0
 _ZNK4Qt3D14QShaderProgram18fragmentShaderCodeEv@Base 5.5.0
 _ZNK4Qt3D14QShaderProgram18geometryShaderCodeEv@Base 5.5.0
 _ZNK4Qt3D14QShaderProgram29tessellationControlShaderCodeEv@Base 5.5.0
 _ZNK4Qt3D14QShaderProgram32tessellationEvaluationShaderCodeEv@Base 5.5.0
 _ZNK4Qt3D14QSortCriterion10metaObjectEv@Base 5.5.0
 _ZNK4Qt3D14QSortCriterion4sortEv@Base 5.5.0
 _ZNK4Qt3D14QTextureBuffer10metaObjectEv@Base 5.5.0
 _ZNK4Qt3D15QCameraSelector10metaObjectEv@Base 5.5.0
 _ZNK4Qt3D15QCameraSelector6cameraEv@Base 5.5.0
 _ZNK4Qt3D15QFrameGraphNode10metaObjectEv@Base 5.5.0
 _ZNK4Qt3D15QFrameGraphNode20parentFrameGraphNodeEv@Base 5.5.0
 _ZNK4Qt3D15QFrameGraphNode9isEnabledEv@Base 5.5.0
 _ZNK4Qt3D15QTexture1DArray10metaObjectEv@Base 5.5.0
 _ZNK4Qt3D15QTexture2DArray10metaObjectEv@Base 5.5.0
 _ZNK4Qt3D15QTextureCubeMap10metaObjectEv@Base 5.5.0
 _ZNK4Qt3D16QForwardRenderer10clearColorEv@Base 5.5.0
 _ZNK4Qt3D16QForwardRenderer10metaObjectEv@Base 5.5.0
 _ZNK4Qt3D16QForwardRenderer12viewportRectEv@Base 5.5.0
 _ZNK4Qt3D16QForwardRenderer6cameraEv@Base 5.5.0
 _ZNK4Qt3D16QItemModelBuffer10metaObjectEv@Base 5.5.0
 _ZNK4Qt3D16QItemModelBuffer14attributeNamesEv@Base 5.5.0
 _ZNK4Qt3D16QItemModelBuffer15attributeByNameE7QString@Base 5.5.0
 _ZNK4Qt3D16QTechniqueFilter10metaObjectEv@Base 5.5.0
 _ZNK4Qt3D16QTechniqueFilter10parametersEv@Base 5.5.0
 _ZNK4Qt3D16QTechniqueFilter8criteriaEv@Base 5.5.0
 _ZNK4Qt3D16QTextureWrapMode10metaObjectEv@Base 5.5.0
 _ZNK4Qt3D16QTextureWrapMode1xEv@Base 5.5.0
 _ZNK4Qt3D16QTextureWrapMode1yEv@Base 5.5.0
 _ZNK4Qt3D16QTextureWrapMode1zEv@Base 5.5.0
 _ZNK4Qt3D17QDirectionalLight10metaObjectEv@Base 5.5.0
 _ZNK4Qt3D17QDirectionalLight9directionEv@Base 5.5.0
 _ZNK4Qt3D17QParameterMapping10metaObjectEv@Base 5.5.0
 _ZNK4Qt3D17QParameterMapping11bindingTypeEv@Base 5.5.0
 _ZNK4Qt3D17QParameterMapping13parameterNameEv@Base 5.5.0
 _ZNK4Qt3D17QParameterMapping18shaderVariableNameEv@Base 5.5.0
 _ZNK4Qt3D17QRenderAttachment10metaObjectEv@Base 5.5.0
 _ZNK4Qt3D17QRenderAttachment4faceEv@Base 5.5.0
 _ZNK4Qt3D17QRenderAttachment4nameEv@Base 5.5.0
 _ZNK4Qt3D17QRenderAttachment4typeEv@Base 5.5.0
 _ZNK4Qt3D17QRenderAttachment5layerEv@Base 5.5.0
 _ZNK4Qt3D17QRenderAttachment7textureEv@Base 5.5.0
 _ZNK4Qt3D17QRenderAttachment8mipLevelEv@Base 5.5.0
 _ZNK4Qt3D17QRenderPassFilter10metaObjectEv@Base 5.5.0
 _ZNK4Qt3D17QRenderPassFilter10parametersEv@Base 5.5.0
 _ZNK4Qt3D17QRenderPassFilter8includesEv@Base 5.5.0
 _ZNK4Qt3D17QTextureRectangle10metaObjectEv@Base 5.5.0
 _ZNK4Qt3D19AbstractSceneParser10metaObjectEv@Base 5.5.0
 _ZNK4Qt3D19AbstractSceneParser12parserStatusEv@Base 5.5.0
 _ZNK4Qt3D19AbstractSceneParser6errorsEv@Base 5.5.0
 _ZNK4Qt3D19QBlendStateSeparate10metaObjectEv@Base 5.5.0
 _ZNK4Qt3D19QDiffuseMapMaterial10metaObjectEv@Base 5.5.0
 _ZNK4Qt3D19QDiffuseMapMaterial12textureScaleEv@Base 5.5.0
 _ZNK4Qt3D19QDiffuseMapMaterial7ambientEv@Base 5.5.0
 _ZNK4Qt3D19QDiffuseMapMaterial7diffuseEv@Base 5.5.0
 _ZNK4Qt3D19QDiffuseMapMaterial8specularEv@Base 5.5.0
 _ZNK4Qt3D19QDiffuseMapMaterial9shininessEv@Base 5.5.0
 _ZNK4Qt3D19QFrameGraphSelector10metaObjectEv@Base 5.5.0
 _ZNK4Qt3D19QFrameGraphSelector16selectionFunctorEv@Base 5.5.0
 _ZNK4Qt3D20QTextureCubeMapArray10metaObjectEv@Base 5.5.0
 _ZNK4Qt3D21QAbstractTextureImage10metaObjectEv@Base 5.5.0
 _ZNK4Qt3D21QAbstractTextureImage11cubeMapFaceEv@Base 5.5.0
 _ZNK4Qt3D21QAbstractTextureImage11mipmapLevelEv@Base 5.5.0
 _ZNK4Qt3D21QAbstractTextureImage5layerEv@Base 5.5.0
 _ZNK4Qt3D21QRenderTargetSelector10metaObjectEv@Base 5.5.0
 _ZNK4Qt3D21QRenderTargetSelector11drawBuffersEv@Base 5.5.0
 _ZNK4Qt3D21QRenderTargetSelector6targetEv@Base 5.5.0
 _ZNK4Qt3D21QTexture2DMultisample10metaObjectEv@Base 5.5.0
 _ZNK4Qt3D23QPerVertexColorMaterial10metaObjectEv@Base 5.5.0
 _ZNK4Qt3D24QAbstractTextureProvider10metaObjectEv@Base 5.5.0
 _ZNK4Qt3D24QAbstractTextureProvider13maximumLayersEv@Base 5.5.0
 _ZNK4Qt3D24QAbstractTextureProvider13textureImagesEv@Base 5.5.0
 _ZNK4Qt3D24QAbstractTextureProvider14comparisonModeEv@Base 5.5.0
 _ZNK4Qt3D24QAbstractTextureProvider15generateMipMapsEv@Base 5.5.0
 _ZNK4Qt3D24QAbstractTextureProvider17maximumAnisotropyEv@Base 5.5.0
 _ZNK4Qt3D24QAbstractTextureProvider18comparisonFunctionEv@Base 5.5.0
 _ZNK4Qt3D24QAbstractTextureProvider18minificationFilterEv@Base 5.5.0
 _ZNK4Qt3D24QAbstractTextureProvider19magnificationFilterEv@Base 5.5.0
 _ZNK4Qt3D24QAbstractTextureProvider5depthEv@Base 5.5.0
 _ZNK4Qt3D24QAbstractTextureProvider5widthEv@Base 5.5.0
 _ZNK4Qt3D24QAbstractTextureProvider6formatEv@Base 5.5.0
 _ZNK4Qt3D24QAbstractTextureProvider6heightEv@Base 5.5.0
 _ZNK4Qt3D24QAbstractTextureProvider6statusEv@Base 5.5.0
 _ZNK4Qt3D24QAbstractTextureProvider6targetEv@Base 5.5.0
 _ZNK4Qt3D24QAbstractTextureProvider8isUniqueEv@Base 5.5.0
 _ZNK4Qt3D25QNormalDiffuseMapMaterial10metaObjectEv@Base 5.5.0
 _ZNK4Qt3D25QNormalDiffuseMapMaterial12textureScaleEv@Base 5.5.0
 _ZNK4Qt3D25QNormalDiffuseMapMaterial6normalEv@Base 5.5.0
 _ZNK4Qt3D25QNormalDiffuseMapMaterial7ambientEv@Base 5.5.0
 _ZNK4Qt3D25QNormalDiffuseMapMaterial7diffuseEv@Base 5.5.0
 _ZNK4Qt3D25QNormalDiffuseMapMaterial8specularEv@Base 5.5.0
 _ZNK4Qt3D25QNormalDiffuseMapMaterial9shininessEv@Base 5.5.0
 _ZNK4Qt3D26QTexture2DMultisampleArray10metaObjectEv@Base 5.5.0
 _ZNK4Qt3D27QDiffuseSpecularMapMaterial10metaObjectEv@Base 5.5.0
 _ZNK4Qt3D27QDiffuseSpecularMapMaterial12textureScaleEv@Base 5.5.0
 _ZNK4Qt3D27QDiffuseSpecularMapMaterial7ambientEv@Base 5.5.0
 _ZNK4Qt3D27QDiffuseSpecularMapMaterial7diffuseEv@Base 5.5.0
 _ZNK4Qt3D27QDiffuseSpecularMapMaterial8specularEv@Base 5.5.0
 _ZNK4Qt3D27QDiffuseSpecularMapMaterial9shininessEv@Base 5.5.0
 _ZNK4Qt3D30QNormalDiffuseMapAlphaMaterial10metaObjectEv@Base 5.5.0
 _ZNK4Qt3D33QNormalDiffuseSpecularMapMaterial10metaObjectEv@Base 5.5.0
 _ZNK4Qt3D33QNormalDiffuseSpecularMapMaterial12textureScaleEv@Base 5.5.0
 _ZNK4Qt3D33QNormalDiffuseSpecularMapMaterial6normalEv@Base 5.5.0
 _ZNK4Qt3D33QNormalDiffuseSpecularMapMaterial7ambientEv@Base 5.5.0
 _ZNK4Qt3D33QNormalDiffuseSpecularMapMaterial7diffuseEv@Base 5.5.0
 _ZNK4Qt3D33QNormalDiffuseSpecularMapMaterial8specularEv@Base 5.5.0
 _ZNK4Qt3D33QNormalDiffuseSpecularMapMaterial9shininessEv@Base 5.5.0
 _ZNK4Qt3D5QMesh10metaObjectEv@Base 5.5.0
 _ZNK4Qt3D5QMesh11meshFunctorEv@Base 5.5.0
 _ZNK4Qt3D5QMesh6sourceEv@Base 5.5.0
 _ZNK4Qt3D6Buffer4typeEv@Base 5.5.0
 _ZNK4Qt3D6Buffer8createGLEv@Base 5.5.0
 _ZNK4Qt3D6QLayer10metaObjectEv@Base 5.5.0
 _ZNK4Qt3D6QLayer5namesEv@Base 5.5.0
 _ZNK4Qt3D6Render20QAbstractSceneLoader10metaObjectEv@Base 5.5.0
 _ZNK4Qt3D6Render20QAbstractSceneLoader6sourceEv@Base 5.5.0
 _ZNK4Qt3D6Render20QAbstractSceneLoader6statusEv@Base 5.5.0
 _ZNK4Qt3D7QEffect10metaObjectEv@Base 5.5.0
 _ZNK4Qt3D7QEffect10parametersEv@Base 5.5.0
 _ZNK4Qt3D7QEffect10techniquesEv@Base 5.5.0
 _ZNK4Qt3D7QNoDraw10metaObjectEv@Base 5.5.0
 _ZNK4Qt3D9Attribute10asVector2DEv@Base 5.5.0
 _ZNK4Qt3D9Attribute10asVector3DEv@Base 5.5.0
 _ZNK4Qt3D9QCullFace10metaObjectEv@Base 5.5.0
 _ZNK4Qt3D9QCullFace4modeEv@Base 5.5.0
 _ZNK4Qt3D9QMaterial10metaObjectEv@Base 5.5.0
 _ZNK4Qt3D9QMaterial10parametersEv@Base 5.5.0
 _ZNK4Qt3D9QMaterial13textureValuesEv@Base 5.5.0
 _ZNK4Qt3D9QMaterial6effectEv@Base 5.5.0
 _ZNK4Qt3D9QMeshData11boundingBoxEv@Base 5.5.0
 _ZNK4Qt3D9QMeshData13primitiveTypeEv@Base 5.5.0
 _ZNK4Qt3D9QMeshData14attributeNamesEv@Base 5.5.0
 _ZNK4Qt3D9QMeshData14indexAttributeEv@Base 5.5.0
 _ZNK4Qt3D9QMeshData14primitiveCountEv@Base 5.5.0
 _ZNK4Qt3D9QMeshData15attributeByNameERK7QString@Base 5.5.0
 _ZNK4Qt3D9QMeshData16verticesPerPatchEv@Base 5.5.0
 _ZNK4Qt3D9QMeshData7buffersEv@Base 5.5.0
 _ZNK4Qt3D9QStateSet10metaObjectEv@Base 5.5.0
 _ZNK4Qt3D9QStateSet12renderStatesEv@Base 5.5.0
 _ZNK4Qt3D9QViewport10clearColorEv@Base 5.5.0
 _ZNK4Qt3D9QViewport10metaObjectEv@Base 5.5.0
 _ZNK4Qt3D9QViewport4rectEv@Base 5.5.0
 _ZTIN4Qt3D10QAlphaTestE@Base 5.5.0
 _ZTIN4Qt3D10QColorMaskE@Base 5.5.0
 _ZTIN4Qt3D10QDepthMaskE@Base 5.5.0
 _ZTIN4Qt3D10QDepthTestE@Base 5.5.0
 _ZTIN4Qt3D10QDitheringE@Base 5.5.0
 _ZTIN4Qt3D10QFrontFaceE@Base 5.5.0
 _ZTIN4Qt3D10QParameterE@Base 5.5.0
 _ZTIN4Qt3D10QPlaneMeshE@Base 5.5.0
 _ZTIN4Qt3D10QSpotLightE@Base 5.5.0
 _ZTIN4Qt3D10QTechniqueE@Base 5.5.0
 _ZTIN4Qt3D10QTexture1DE@Base 5.5.0
 _ZTIN4Qt3D10QTexture2DE@Base 5.5.0
 _ZTIN4Qt3D10QTexture3DE@Base 5.5.0
 _ZTIN4Qt3D10QTorusMeshE@Base 5.5.0
 _ZTIN4Qt3D11QAnnotationE@Base 5.5.0
 _ZTIN4Qt3D11QBlendStateE@Base 5.5.0
 _ZTIN4Qt3D11QCuboidMeshE@Base 5.5.0
 _ZTIN4Qt3D11QFrameGraphE@Base 5.5.0
 _ZTIN4Qt3D11QPointLightE@Base 5.5.0
 _ZTIN4Qt3D11QRenderPassE@Base 5.5.0
 _ZTIN4Qt3D11QShaderDataE@Base 5.5.0
 _ZTIN4Qt3D11QSortMethodE@Base 5.5.0
 _ZTIN4Qt3D11QSphereMeshE@Base 5.5.0
 _ZTIN4Qt3D12QClearBufferE@Base 5.5.0
 _ZTIN4Qt3D12QLayerFilterE@Base 5.5.0
 _ZTIN4Qt3D12QMeshPrivateE@Base 5.5.0
 _ZTIN4Qt3D12QRenderStateE@Base 5.5.0
 _ZTIN4Qt3D12QSceneLoaderE@Base 5.5.0
 _ZTIN4Qt3D12QScissorTestE@Base 5.5.0
 _ZTIN4Qt3D12QStencilTestE@Base 5.5.0
 _ZTIN4Qt3D13QAbstractMeshE@Base 5.5.0
 _ZTIN4Qt3D13QCylinderMeshE@Base 5.5.0
 _ZTIN4Qt3D13QLayerPrivateE@Base 5.5.0
 _ZTIN4Qt3D13QOpenGLFilterE@Base 5.5.0
 _ZTIN4Qt3D13QRenderAspectE@Base 5.5.0
 _ZTIN4Qt3D13QRenderTargetE@Base 5.5.0
 _ZTIN4Qt3D13QSkyboxEntityE@Base 5.5.0
 _ZTIN4Qt3D13QTextureImageE@Base 5.5.0
 _ZTIN4Qt3D14QAbstractLightE@Base 5.5.0
 _ZTIN4Qt3D14QAlphaCoverageE@Base 5.5.0
 _ZTIN4Qt3D14QBlendEquationE@Base 5.5.0
 _ZTIN4Qt3D14QEffectPrivateE@Base 5.5.0
 _ZTIN4Qt3D14QEntityPrivateE@Base 5.5.0
 _ZTIN4Qt3D14QPhongMaterialE@Base 5.5.0
 _ZTIN4Qt3D14QPolygonOffsetE@Base 5.5.0
 _ZTIN4Qt3D14QShaderProgramE@Base 5.5.0
 _ZTIN4Qt3D14QSortCriterionE@Base 5.5.0
 _ZTIN4Qt3D14QTextureBufferE@Base 5.5.0
 _ZTIN4Qt3D15QCameraSelectorE@Base 5.5.0
 _ZTIN4Qt3D15QFrameGraphNodeE@Base 5.5.0
 _ZTIN4Qt3D15QTexture1DArrayE@Base 5.5.0
 _ZTIN4Qt3D15QTexture2DArrayE@Base 5.5.0
 _ZTIN4Qt3D15QTextureCubeMapE@Base 5.5.0
 _ZTIN4Qt3D16QForwardRendererE@Base 5.5.0
 _ZTIN4Qt3D16QItemModelBufferE@Base 5.5.0
 _ZTIN4Qt3D16QMaterialPrivateE@Base 5.5.0
 _ZTIN4Qt3D16QTechniqueFilterE@Base 5.5.0
 _ZTIN4Qt3D16QTextureWrapModeE@Base 5.5.0
 _ZTIN4Qt3D17QComponentPrivateE@Base 5.5.0
 _ZTIN4Qt3D17QDirectionalLightE@Base 5.5.0
 _ZTIN4Qt3D17QParameterMappingE@Base 5.5.0
 _ZTIN4Qt3D17QParameterPrivateE@Base 5.5.0
 _ZTIN4Qt3D17QRenderAttachmentE@Base 5.5.0
 _ZTIN4Qt3D17QRenderPassFilterE@Base 5.5.0
 _ZTIN4Qt3D17QSpotLightPrivateE@Base 5.5.0
 _ZTIN4Qt3D17QTechniquePrivateE@Base 5.5.0
 _ZTIN4Qt3D17QTextureRectangleE@Base 5.5.0
 _ZTIN4Qt3D18QPointLightPrivateE@Base 5.5.0
 _ZTIN4Qt3D18QRenderPassPrivateE@Base 5.5.0
 _ZTIN4Qt3D18QShaderDataPrivateE@Base 5.5.0
 _ZTIN4Qt3D19AbstractSceneParserE@Base 5.5.0
 _ZTIN4Qt3D19QBackendNodeFunctorE@Base 5.5.0
 _ZTIN4Qt3D19QBlendStateSeparateE@Base 5.5.0
 _ZTIN4Qt3D19QDiffuseMapMaterialE@Base 5.5.0
 _ZTIN4Qt3D19QFrameGraphSelectorE@Base 5.5.0
 _ZTIN4Qt3D19QLayerFilterPrivateE@Base 5.5.0
 _ZTIN4Qt3D19QTextureDataFunctorE@Base 5.5.0
 _ZTIN4Qt3D20QAbstractMeshFunctorE@Base 5.5.0
 _ZTIN4Qt3D20QAbstractMeshPrivateE@Base 5.5.0
 _ZTIN4Qt3D20QTextureCubeMapArrayE@Base 5.5.0
 _ZTIN4Qt3D21QAbstractLightPrivateE@Base 5.5.0
 _ZTIN4Qt3D21QAbstractTextureImageE@Base 5.5.0
 _ZTIN4Qt3D21QRenderTargetSelectorE@Base 5.5.0
 _ZTIN4Qt3D21QTexture2DMultisampleE@Base 5.5.0
 _ZTIN4Qt3D22QAbstractAspectPrivateE@Base 5.5.0
 _ZTIN4Qt3D23PropertyReaderInterfaceE@Base 5.5.0
 _ZTIN4Qt3D23QPerVertexColorMaterialE@Base 5.5.0
 _ZTIN4Qt3D24QAbstractTextureProviderE@Base 5.5.0
 _ZTIN4Qt3D24QDirectionalLightPrivateE@Base 5.5.0
 _ZTIN4Qt3D25QNormalDiffuseMapMaterialE@Base 5.5.0
 _ZTIN4Qt3D26QTexture2DMultisampleArrayE@Base 5.5.0
 _ZTIN4Qt3D27QDiffuseSpecularMapMaterialE@Base 5.5.0
 _ZTIN4Qt3D28QAbstractTextureImagePrivateE@Base 5.5.0
 _ZTIN4Qt3D30QNormalDiffuseMapAlphaMaterialE@Base 5.5.0
 _ZTIN4Qt3D33QNormalDiffuseSpecularMapMaterialE@Base 5.5.0
 _ZTIN4Qt3D5QMeshE@Base 5.5.0
 _ZTIN4Qt3D6BufferE@Base 5.5.0
 _ZTIN4Qt3D6QLayerE@Base 5.5.0
 _ZTIN4Qt3D6Render20QAbstractSceneLoaderE@Base 5.5.0
 _ZTIN4Qt3D6Render27QAbstractSceneLoaderPrivateE@Base 5.5.0
 _ZTIN4Qt3D7QEffectE@Base 5.5.0
 _ZTIN4Qt3D7QNoDrawE@Base 5.5.0
 _ZTIN4Qt3D9AttributeE@Base 5.5.0
 _ZTIN4Qt3D9QCullFaceE@Base 5.5.0
 _ZTIN4Qt3D9QMaterialE@Base 5.5.0
 _ZTIN4Qt3D9QMeshDataE@Base 5.5.0
 _ZTIN4Qt3D9QStateSetE@Base 5.5.0
 _ZTIN4Qt3D9QViewportE@Base 5.5.0
 _ZTSN4Qt3D10QAlphaTestE@Base 5.5.0
 _ZTSN4Qt3D10QColorMaskE@Base 5.5.0
 _ZTSN4Qt3D10QDepthMaskE@Base 5.5.0
 _ZTSN4Qt3D10QDepthTestE@Base 5.5.0
 _ZTSN4Qt3D10QDitheringE@Base 5.5.0
 _ZTSN4Qt3D10QFrontFaceE@Base 5.5.0
 _ZTSN4Qt3D10QParameterE@Base 5.5.0
 _ZTSN4Qt3D10QPlaneMeshE@Base 5.5.0
 _ZTSN4Qt3D10QSpotLightE@Base 5.5.0
 _ZTSN4Qt3D10QTechniqueE@Base 5.5.0
 _ZTSN4Qt3D10QTexture1DE@Base 5.5.0
 _ZTSN4Qt3D10QTexture2DE@Base 5.5.0
 _ZTSN4Qt3D10QTexture3DE@Base 5.5.0
 _ZTSN4Qt3D10QTorusMeshE@Base 5.5.0
 _ZTSN4Qt3D11QAnnotationE@Base 5.5.0
 _ZTSN4Qt3D11QBlendStateE@Base 5.5.0
 _ZTSN4Qt3D11QCuboidMeshE@Base 5.5.0
 _ZTSN4Qt3D11QFrameGraphE@Base 5.5.0
 _ZTSN4Qt3D11QPointLightE@Base 5.5.0
 _ZTSN4Qt3D11QRenderPassE@Base 5.5.0
 _ZTSN4Qt3D11QShaderDataE@Base 5.5.0
 _ZTSN4Qt3D11QSortMethodE@Base 5.5.0
 _ZTSN4Qt3D11QSphereMeshE@Base 5.5.0
 _ZTSN4Qt3D12QClearBufferE@Base 5.5.0
 _ZTSN4Qt3D12QLayerFilterE@Base 5.5.0
 _ZTSN4Qt3D12QMeshPrivateE@Base 5.5.0
 _ZTSN4Qt3D12QRenderStateE@Base 5.5.0
 _ZTSN4Qt3D12QSceneLoaderE@Base 5.5.0
 _ZTSN4Qt3D12QScissorTestE@Base 5.5.0
 _ZTSN4Qt3D12QStencilTestE@Base 5.5.0
 _ZTSN4Qt3D13QAbstractMeshE@Base 5.5.0
 _ZTSN4Qt3D13QCylinderMeshE@Base 5.5.0
 _ZTSN4Qt3D13QLayerPrivateE@Base 5.5.0
 _ZTSN4Qt3D13QOpenGLFilterE@Base 5.5.0
 _ZTSN4Qt3D13QRenderAspectE@Base 5.5.0
 _ZTSN4Qt3D13QRenderTargetE@Base 5.5.0
 _ZTSN4Qt3D13QSkyboxEntityE@Base 5.5.0
 _ZTSN4Qt3D13QTextureImageE@Base 5.5.0
 _ZTSN4Qt3D14QAbstractLightE@Base 5.5.0
 _ZTSN4Qt3D14QAlphaCoverageE@Base 5.5.0
 _ZTSN4Qt3D14QBlendEquationE@Base 5.5.0
 _ZTSN4Qt3D14QEffectPrivateE@Base 5.5.0
 _ZTSN4Qt3D14QEntityPrivateE@Base 5.5.0
 _ZTSN4Qt3D14QPhongMaterialE@Base 5.5.0
 _ZTSN4Qt3D14QPolygonOffsetE@Base 5.5.0
 _ZTSN4Qt3D14QShaderProgramE@Base 5.5.0
 _ZTSN4Qt3D14QSortCriterionE@Base 5.5.0
 _ZTSN4Qt3D14QTextureBufferE@Base 5.5.0
 _ZTSN4Qt3D15QCameraSelectorE@Base 5.5.0
 _ZTSN4Qt3D15QFrameGraphNodeE@Base 5.5.0
 _ZTSN4Qt3D15QTexture1DArrayE@Base 5.5.0
 _ZTSN4Qt3D15QTexture2DArrayE@Base 5.5.0
 _ZTSN4Qt3D15QTextureCubeMapE@Base 5.5.0
 _ZTSN4Qt3D16QForwardRendererE@Base 5.5.0
 _ZTSN4Qt3D16QItemModelBufferE@Base 5.5.0
 _ZTSN4Qt3D16QMaterialPrivateE@Base 5.5.0
 _ZTSN4Qt3D16QTechniqueFilterE@Base 5.5.0
 _ZTSN4Qt3D16QTextureWrapModeE@Base 5.5.0
 _ZTSN4Qt3D17QComponentPrivateE@Base 5.5.0
 _ZTSN4Qt3D17QDirectionalLightE@Base 5.5.0
 _ZTSN4Qt3D17QParameterMappingE@Base 5.5.0
 _ZTSN4Qt3D17QParameterPrivateE@Base 5.5.0
 _ZTSN4Qt3D17QRenderAttachmentE@Base 5.5.0
 _ZTSN4Qt3D17QRenderPassFilterE@Base 5.5.0
 _ZTSN4Qt3D17QSpotLightPrivateE@Base 5.5.0
 _ZTSN4Qt3D17QTechniquePrivateE@Base 5.5.0
 _ZTSN4Qt3D17QTextureRectangleE@Base 5.5.0
 _ZTSN4Qt3D18QPointLightPrivateE@Base 5.5.0
 _ZTSN4Qt3D18QRenderPassPrivateE@Base 5.5.0
 _ZTSN4Qt3D18QShaderDataPrivateE@Base 5.5.0
 _ZTSN4Qt3D19AbstractSceneParserE@Base 5.5.0
 _ZTSN4Qt3D19QBackendNodeFunctorE@Base 5.5.0
 _ZTSN4Qt3D19QBlendStateSeparateE@Base 5.5.0
 _ZTSN4Qt3D19QDiffuseMapMaterialE@Base 5.5.0
 _ZTSN4Qt3D19QFrameGraphSelectorE@Base 5.5.0
 _ZTSN4Qt3D19QLayerFilterPrivateE@Base 5.5.0
 _ZTSN4Qt3D19QTextureDataFunctorE@Base 5.5.0
 _ZTSN4Qt3D20QAbstractMeshFunctorE@Base 5.5.0
 _ZTSN4Qt3D20QAbstractMeshPrivateE@Base 5.5.0
 _ZTSN4Qt3D20QTextureCubeMapArrayE@Base 5.5.0
 _ZTSN4Qt3D21QAbstractLightPrivateE@Base 5.5.0
 _ZTSN4Qt3D21QAbstractTextureImageE@Base 5.5.0
 _ZTSN4Qt3D21QRenderTargetSelectorE@Base 5.5.0
 _ZTSN4Qt3D21QTexture2DMultisampleE@Base 5.5.0
 _ZTSN4Qt3D22QAbstractAspectPrivateE@Base 5.5.0
 _ZTSN4Qt3D23PropertyReaderInterfaceE@Base 5.5.0
 _ZTSN4Qt3D23QPerVertexColorMaterialE@Base 5.5.0
 _ZTSN4Qt3D24QAbstractTextureProviderE@Base 5.5.0
 _ZTSN4Qt3D24QDirectionalLightPrivateE@Base 5.5.0
 _ZTSN4Qt3D25QNormalDiffuseMapMaterialE@Base 5.5.0
 _ZTSN4Qt3D26QTexture2DMultisampleArrayE@Base 5.5.0
 _ZTSN4Qt3D27QDiffuseSpecularMapMaterialE@Base 5.5.0
 _ZTSN4Qt3D28QAbstractTextureImagePrivateE@Base 5.5.0
 _ZTSN4Qt3D30QNormalDiffuseMapAlphaMaterialE@Base 5.5.0
 _ZTSN4Qt3D33QNormalDiffuseSpecularMapMaterialE@Base 5.5.0
 _ZTSN4Qt3D5QMeshE@Base 5.5.0
 _ZTSN4Qt3D6BufferE@Base 5.5.0
 _ZTSN4Qt3D6QLayerE@Base 5.5.0
 _ZTSN4Qt3D6Render20QAbstractSceneLoaderE@Base 5.5.0
 _ZTSN4Qt3D6Render27QAbstractSceneLoaderPrivateE@Base 5.5.0
 _ZTSN4Qt3D7QEffectE@Base 5.5.0
 _ZTSN4Qt3D7QNoDrawE@Base 5.5.0
 _ZTSN4Qt3D9AttributeE@Base 5.5.0
 _ZTSN4Qt3D9QCullFaceE@Base 5.5.0
 _ZTSN4Qt3D9QMaterialE@Base 5.5.0
 _ZTSN4Qt3D9QMeshDataE@Base 5.5.0
 _ZTSN4Qt3D9QStateSetE@Base 5.5.0
 _ZTSN4Qt3D9QViewportE@Base 5.5.0
 _ZTVN4Qt3D10QAlphaTestE@Base 5.5.0
 _ZTVN4Qt3D10QColorMaskE@Base 5.5.0
 _ZTVN4Qt3D10QDepthMaskE@Base 5.5.0
 _ZTVN4Qt3D10QDepthTestE@Base 5.5.0
 _ZTVN4Qt3D10QDitheringE@Base 5.5.0
 _ZTVN4Qt3D10QFrontFaceE@Base 5.5.0
 _ZTVN4Qt3D10QParameterE@Base 5.5.0
 _ZTVN4Qt3D10QPlaneMeshE@Base 5.5.0
 _ZTVN4Qt3D10QSpotLightE@Base 5.5.0
 _ZTVN4Qt3D10QTechniqueE@Base 5.5.0
 _ZTVN4Qt3D10QTexture1DE@Base 5.5.0
 _ZTVN4Qt3D10QTexture2DE@Base 5.5.0
 _ZTVN4Qt3D10QTexture3DE@Base 5.5.0
 _ZTVN4Qt3D10QTorusMeshE@Base 5.5.0
 _ZTVN4Qt3D11QAnnotationE@Base 5.5.0
 _ZTVN4Qt3D11QBlendStateE@Base 5.5.0
 _ZTVN4Qt3D11QCuboidMeshE@Base 5.5.0
 _ZTVN4Qt3D11QFrameGraphE@Base 5.5.0
 _ZTVN4Qt3D11QPointLightE@Base 5.5.0
 _ZTVN4Qt3D11QRenderPassE@Base 5.5.0
 _ZTVN4Qt3D11QShaderDataE@Base 5.5.0
 _ZTVN4Qt3D11QSortMethodE@Base 5.5.0
 _ZTVN4Qt3D11QSphereMeshE@Base 5.5.0
 _ZTVN4Qt3D12QClearBufferE@Base 5.5.0
 _ZTVN4Qt3D12QLayerFilterE@Base 5.5.0
 _ZTVN4Qt3D12QMeshPrivateE@Base 5.5.0
 _ZTVN4Qt3D12QRenderStateE@Base 5.5.0
 _ZTVN4Qt3D12QSceneLoaderE@Base 5.5.0
 _ZTVN4Qt3D12QScissorTestE@Base 5.5.0
 _ZTVN4Qt3D12QStencilTestE@Base 5.5.0
 _ZTVN4Qt3D13QAbstractMeshE@Base 5.5.0
 _ZTVN4Qt3D13QCylinderMeshE@Base 5.5.0
 _ZTVN4Qt3D13QLayerPrivateE@Base 5.5.0
 _ZTVN4Qt3D13QOpenGLFilterE@Base 5.5.0
 _ZTVN4Qt3D13QRenderAspectE@Base 5.5.0
 _ZTVN4Qt3D13QRenderTargetE@Base 5.5.0
 _ZTVN4Qt3D13QSkyboxEntityE@Base 5.5.0
 _ZTVN4Qt3D13QTextureImageE@Base 5.5.0
 _ZTVN4Qt3D14QAbstractLightE@Base 5.5.0
 _ZTVN4Qt3D14QAlphaCoverageE@Base 5.5.0
 _ZTVN4Qt3D14QBlendEquationE@Base 5.5.0
 _ZTVN4Qt3D14QEffectPrivateE@Base 5.5.0
 _ZTVN4Qt3D14QEntityPrivateE@Base 5.5.0
 _ZTVN4Qt3D14QPhongMaterialE@Base 5.5.0
 _ZTVN4Qt3D14QPolygonOffsetE@Base 5.5.0
 _ZTVN4Qt3D14QShaderProgramE@Base 5.5.0
 _ZTVN4Qt3D14QSortCriterionE@Base 5.5.0
 _ZTVN4Qt3D14QTextureBufferE@Base 5.5.0
 _ZTVN4Qt3D15QCameraSelectorE@Base 5.5.0
 _ZTVN4Qt3D15QFrameGraphNodeE@Base 5.5.0
 _ZTVN4Qt3D15QTexture1DArrayE@Base 5.5.0
 _ZTVN4Qt3D15QTexture2DArrayE@Base 5.5.0
 _ZTVN4Qt3D15QTextureCubeMapE@Base 5.5.0
 _ZTVN4Qt3D16QForwardRendererE@Base 5.5.0
 _ZTVN4Qt3D16QItemModelBufferE@Base 5.5.0
 _ZTVN4Qt3D16QMaterialPrivateE@Base 5.5.0
 _ZTVN4Qt3D16QTechniqueFilterE@Base 5.5.0
 _ZTVN4Qt3D16QTextureWrapModeE@Base 5.5.0
 _ZTVN4Qt3D17QComponentPrivateE@Base 5.5.0
 _ZTVN4Qt3D17QDirectionalLightE@Base 5.5.0
 _ZTVN4Qt3D17QParameterMappingE@Base 5.5.0
 _ZTVN4Qt3D17QParameterPrivateE@Base 5.5.0
 _ZTVN4Qt3D17QRenderAttachmentE@Base 5.5.0
 _ZTVN4Qt3D17QRenderPassFilterE@Base 5.5.0
 _ZTVN4Qt3D17QSpotLightPrivateE@Base 5.5.0
 _ZTVN4Qt3D17QTechniquePrivateE@Base 5.5.0
 _ZTVN4Qt3D17QTextureRectangleE@Base 5.5.0
 _ZTVN4Qt3D18QPointLightPrivateE@Base 5.5.0
 _ZTVN4Qt3D18QRenderPassPrivateE@Base 5.5.0
 _ZTVN4Qt3D18QShaderDataPrivateE@Base 5.5.0
 _ZTVN4Qt3D19AbstractSceneParserE@Base 5.5.0
 _ZTVN4Qt3D19QBlendStateSeparateE@Base 5.5.0
 _ZTVN4Qt3D19QDiffuseMapMaterialE@Base 5.5.0
 _ZTVN4Qt3D19QFrameGraphSelectorE@Base 5.5.0
 _ZTVN4Qt3D19QLayerFilterPrivateE@Base 5.5.0
 _ZTVN4Qt3D20QAbstractMeshPrivateE@Base 5.5.0
 _ZTVN4Qt3D20QTextureCubeMapArrayE@Base 5.5.0
 _ZTVN4Qt3D21QAbstractLightPrivateE@Base 5.5.0
 _ZTVN4Qt3D21QAbstractTextureImageE@Base 5.5.0
 _ZTVN4Qt3D21QRenderTargetSelectorE@Base 5.5.0
 _ZTVN4Qt3D21QTexture2DMultisampleE@Base 5.5.0
 _ZTVN4Qt3D22QAbstractAspectPrivateE@Base 5.5.0
 _ZTVN4Qt3D23QPerVertexColorMaterialE@Base 5.5.0
 _ZTVN4Qt3D24QAbstractTextureProviderE@Base 5.5.0
 _ZTVN4Qt3D24QDirectionalLightPrivateE@Base 5.5.0
 _ZTVN4Qt3D25QNormalDiffuseMapMaterialE@Base 5.5.0
 _ZTVN4Qt3D26QTexture2DMultisampleArrayE@Base 5.5.0
 _ZTVN4Qt3D27QDiffuseSpecularMapMaterialE@Base 5.5.0
 _ZTVN4Qt3D28QAbstractTextureImagePrivateE@Base 5.5.0
 _ZTVN4Qt3D30QNormalDiffuseMapAlphaMaterialE@Base 5.5.0
 _ZTVN4Qt3D33QNormalDiffuseSpecularMapMaterialE@Base 5.5.0
 _ZTVN4Qt3D5QMeshE@Base 5.5.0
 _ZTVN4Qt3D6BufferE@Base 5.5.0
 _ZTVN4Qt3D6QLayerE@Base 5.5.0
 _ZTVN4Qt3D6Render20QAbstractSceneLoaderE@Base 5.5.0
 _ZTVN4Qt3D6Render27QAbstractSceneLoaderPrivateE@Base 5.5.0
 _ZTVN4Qt3D7QEffectE@Base 5.5.0
 _ZTVN4Qt3D7QNoDrawE@Base 5.5.0
 _ZTVN4Qt3D9AttributeE@Base 5.5.0
 _ZTVN4Qt3D9QCullFaceE@Base 5.5.0
 _ZTVN4Qt3D9QMaterialE@Base 5.5.0
 _ZTVN4Qt3D9QMeshDataE@Base 5.5.0
 _ZTVN4Qt3D9QStateSetE@Base 5.5.0
 _ZTVN4Qt3D9QViewportE@Base 5.5.0
 (c++)"non-virtual thunk to Qt3D::QRenderAspect::jobsToExecute(long long)@Base" 5.5.0
 (c++)"non-virtual thunk to Qt3D::QRenderAspect::sceneNodeAdded(QSharedPointer<Qt3D::QSceneChange>&)@Base" 5.5.0
 (c++)"non-virtual thunk to Qt3D::QRenderAspect::sceneNodeRemoved(QSharedPointer<Qt3D::QSceneChange>&)@Base" 5.5.0
 (c++)"non-virtual thunk to Qt3D::QTechniquePrivate::~QTechniquePrivate()@Base" 5.5.0
