# SymbolsHelper-Confirmed: 5.5.1 amd64
libQt53DCollision.so.5 libqt53dcollision5 #MINVER#
 _ZN4Qt3D12QBoxCollider11qt_metacallEN11QMetaObject4CallEiPPv@Base 5.5.1
 _ZN4Qt3D12QBoxCollider11qt_metacastEPKc@Base 5.5.1
 _ZN4Qt3D12QBoxCollider12radiiChangedE9QVector3D@Base 5.5.1
 _ZN4Qt3D12QBoxCollider13centerChangedE9QVector3D@Base 5.5.1
 _ZN4Qt3D12QBoxCollider16staticMetaObjectE@Base 5.5.1
 _ZN4Qt3D12QBoxCollider8setRadiiERK9QVector3D@Base 5.5.1
 _ZN4Qt3D12QBoxCollider9setCenterERK9QVector3D@Base 5.5.1
 _ZN4Qt3D12QBoxColliderC1EPNS_5QNodeE@Base 5.5.1
 _ZN4Qt3D12QBoxColliderC1ERNS_19QBoxColliderPrivateEPNS_5QNodeE@Base 5.5.1
 _ZN4Qt3D12QBoxColliderC2EPNS_5QNodeE@Base 5.5.1
 _ZN4Qt3D12QBoxColliderC2ERNS_19QBoxColliderPrivateEPNS_5QNodeE@Base 5.5.1
 _ZN4Qt3D12QBoxColliderD0Ev@Base 5.5.1
 _ZN4Qt3D12QBoxColliderD1Ev@Base 5.5.1
 _ZN4Qt3D12QBoxColliderD2Ev@Base 5.5.1
 (optional=templinst)_ZN4Qt3D12QNodeVisitor16traverseChildrenINS0_21MemberFunctionFunctorINS_16QCollisionAspectEPNS_5QNodeEEEEEvRT_@Base 5.5.1
 (optional=templinst)_ZN4Qt3D14QAspectFactory14functionHelperINS_16QCollisionAspectEEEPNS_15QAbstractAspectEP7QObject@Base 5.5.1
 _ZN4Qt3D15QSphereCollider11qt_metacallEN11QMetaObject4CallEiPPv@Base 5.5.1
 _ZN4Qt3D15QSphereCollider11qt_metacastEPKc@Base 5.5.1
 _ZN4Qt3D15QSphereCollider13centerChangedE9QVector3D@Base 5.5.1
 _ZN4Qt3D15QSphereCollider13radiusChangedEf@Base 5.5.1
 _ZN4Qt3D15QSphereCollider16staticMetaObjectE@Base 5.5.1
 _ZN4Qt3D15QSphereCollider9setCenterERK9QVector3D@Base 5.5.1
 _ZN4Qt3D15QSphereCollider9setRadiusEf@Base 5.5.1
 _ZN4Qt3D15QSphereColliderC1EPNS_5QNodeE@Base 5.5.1
 _ZN4Qt3D15QSphereColliderC1ERNS_22QSphereColliderPrivateEPNS_5QNodeE@Base 5.5.1
 _ZN4Qt3D15QSphereColliderC2EPNS_5QNodeE@Base 5.5.1
 _ZN4Qt3D15QSphereColliderC2ERNS_22QSphereColliderPrivateEPNS_5QNodeE@Base 5.5.1
 _ZN4Qt3D15QSphereColliderD0Ev@Base 5.5.1
 _ZN4Qt3D15QSphereColliderD1Ev@Base 5.5.1
 _ZN4Qt3D15QSphereColliderD2Ev@Base 5.5.1
 _ZN4Qt3D16QCapsuleCollider11qt_metacallEN11QMetaObject4CallEiPPv@Base 5.5.1
 _ZN4Qt3D16QCapsuleCollider11qt_metacastEPKc@Base 5.5.1
 _ZN4Qt3D16QCapsuleCollider13centerChangedE9QVector3D@Base 5.5.1
 _ZN4Qt3D16QCapsuleCollider13lengthChangedEf@Base 5.5.1
 _ZN4Qt3D16QCapsuleCollider13radiusChangedEf@Base 5.5.1
 _ZN4Qt3D16QCapsuleCollider16setAxisDirectionENS0_9DirectionE@Base 5.5.1
 _ZN4Qt3D16QCapsuleCollider16staticMetaObjectE@Base 5.5.1
 _ZN4Qt3D16QCapsuleCollider20axisDirectionChangedENS0_9DirectionE@Base 5.5.1
 _ZN4Qt3D16QCapsuleCollider9setCenterERK9QVector3D@Base 5.5.1
 _ZN4Qt3D16QCapsuleCollider9setLengthEf@Base 5.5.1
 _ZN4Qt3D16QCapsuleCollider9setRadiusEf@Base 5.5.1
 _ZN4Qt3D16QCapsuleColliderC1EPNS_5QNodeE@Base 5.5.1
 _ZN4Qt3D16QCapsuleColliderC1ERNS_23QCapsuleColliderPrivateEPNS_5QNodeE@Base 5.5.1
 _ZN4Qt3D16QCapsuleColliderC2EPNS_5QNodeE@Base 5.5.1
 _ZN4Qt3D16QCapsuleColliderC2ERNS_23QCapsuleColliderPrivateEPNS_5QNodeE@Base 5.5.1
 _ZN4Qt3D16QCapsuleColliderD0Ev@Base 5.5.1
 _ZN4Qt3D16QCapsuleColliderD1Ev@Base 5.5.1
 _ZN4Qt3D16QCapsuleColliderD2Ev@Base 5.5.1
 _ZN4Qt3D16QCollisionAspect11qt_metacallEN11QMetaObject4CallEiPPv@Base 5.5.1
 _ZN4Qt3D16QCollisionAspect11qt_metacastEPKc@Base 5.5.1
 _ZN4Qt3D16QCollisionAspect12onInitializeERK4QMapI7QString8QVariantE@Base 5.5.1
 _ZN4Qt3D16QCollisionAspect13jobsToExecuteEx@Base 5.5.1
 _ZN4Qt3D16QCollisionAspect13setRootEntityEPNS_7QEntityE@Base 5.5.1
 _ZN4Qt3D16QCollisionAspect14sceneNodeAddedER14QSharedPointerINS_12QSceneChangeEE@Base 5.5.1
 _ZN4Qt3D16QCollisionAspect16sceneNodeRemovedER14QSharedPointerINS_12QSceneChangeEE@Base 5.5.1
 _ZN4Qt3D16QCollisionAspect16staticMetaObjectE@Base 5.5.1
 _ZN4Qt3D16QCollisionAspect20registerBackendTypesEv@Base 5.5.1
 _ZN4Qt3D16QCollisionAspect9onCleanupEv@Base 5.5.1
 _ZN4Qt3D16QCollisionAspect9visitNodeEPNS_5QNodeE@Base 5.5.1
 _ZN4Qt3D16QCollisionAspectC1EP7QObject@Base 5.5.1
 _ZN4Qt3D16QCollisionAspectC1ERNS_23QCollisionAspectPrivateEP7QObject@Base 5.5.1
 _ZN4Qt3D16QCollisionAspectC2EP7QObject@Base 5.5.1
 _ZN4Qt3D16QCollisionAspectC2ERNS_23QCollisionAspectPrivateEP7QObject@Base 5.5.1
 _ZN4Qt3D17QAbstractCollider11qt_metacallEN11QMetaObject4CallEiPPv@Base 5.5.1
 _ZN4Qt3D17QAbstractCollider11qt_metacastEPKc@Base 5.5.1
 _ZN4Qt3D17QAbstractCollider13collidingWithEPS0_@Base 5.5.1
 _ZN4Qt3D17QAbstractCollider15onCollidingWithEPNS_15QCollisionEventE@Base 5.5.1
 _ZN4Qt3D17QAbstractCollider16staticMetaObjectE@Base 5.5.1
 _ZN4Qt3D17QAbstractCollider6exitedEPS0_@Base 5.5.1
 _ZN4Qt3D17QAbstractCollider7enteredEPS0_@Base 5.5.1
 _ZN4Qt3D17QAbstractCollider8onExitedEPNS_15QCollisionEventE@Base 5.5.1
 _ZN4Qt3D17QAbstractCollider9onEnteredEPNS_15QCollisionEventE@Base 5.5.1
 _ZN4Qt3D17QAbstractColliderC1ERNS_24QAbstractColliderPrivateEPNS_5QNodeE@Base 5.5.1
 _ZN4Qt3D17QAbstractColliderC2ERNS_24QAbstractColliderPrivateEPNS_5QNodeE@Base 5.5.1
 _ZN4Qt3D17QAbstractColliderD0Ev@Base 5.5.1
 _ZN4Qt3D17QAbstractColliderD1Ev@Base 5.5.1
 _ZN4Qt3D17QAbstractColliderD2Ev@Base 5.5.1
 _ZN4Qt3D17QGeometryCollider11qt_metacallEN11QMetaObject4CallEiPPv@Base 5.5.1
 _ZN4Qt3D17QGeometryCollider11qt_metacastEPKc@Base 5.5.1
 _ZN4Qt3D17QGeometryCollider16staticMetaObjectE@Base 5.5.1
 _ZN4Qt3D17QGeometryColliderC1EPNS_5QNodeE@Base 5.5.1
 _ZN4Qt3D17QGeometryColliderC1ERNS_24QGeometryColliderPrivateEPNS_5QNodeE@Base 5.5.1
 _ZN4Qt3D17QGeometryColliderC2EPNS_5QNodeE@Base 5.5.1
 _ZN4Qt3D17QGeometryColliderC2ERNS_24QGeometryColliderPrivateEPNS_5QNodeE@Base 5.5.1
 _ZN4Qt3D17QGeometryColliderD0Ev@Base 5.5.1
 _ZN4Qt3D17QGeometryColliderD1Ev@Base 5.5.1
 _ZN4Qt3D17QGeometryColliderD2Ev@Base 5.5.1
 _ZNK4Qt3D12QBoxCollider10metaObjectEv@Base 5.5.1
 _ZNK4Qt3D12QBoxCollider5radiiEv@Base 5.5.1
 _ZNK4Qt3D12QBoxCollider6centerEv@Base 5.5.1
 _ZNK4Qt3D15QSphereCollider10metaObjectEv@Base 5.5.1
 _ZNK4Qt3D15QSphereCollider6centerEv@Base 5.5.1
 _ZNK4Qt3D15QSphereCollider6radiusEv@Base 5.5.1
 _ZNK4Qt3D16QCapsuleCollider10metaObjectEv@Base 5.5.1
 _ZNK4Qt3D16QCapsuleCollider13axisDirectionEv@Base 5.5.1
 _ZNK4Qt3D16QCapsuleCollider6centerEv@Base 5.5.1
 _ZNK4Qt3D16QCapsuleCollider6lengthEv@Base 5.5.1
 _ZNK4Qt3D16QCapsuleCollider6radiusEv@Base 5.5.1
 _ZNK4Qt3D16QCollisionAspect10metaObjectEv@Base 5.5.1
 _ZNK4Qt3D17QAbstractCollider10metaObjectEv@Base 5.5.1
 _ZNK4Qt3D17QGeometryCollider10metaObjectEv@Base 5.5.1
 _ZTIN4Qt3D12QBoxColliderE@Base 5.5.1
 _ZTIN4Qt3D15QSphereColliderE@Base 5.5.1
 _ZTIN4Qt3D16QCapsuleColliderE@Base 5.5.1
 _ZTIN4Qt3D16QCollisionAspectE@Base 5.5.1
 _ZTIN4Qt3D17QAbstractColliderE@Base 5.5.1
 _ZTIN4Qt3D17QComponentPrivateE@Base 5.5.1
 _ZTIN4Qt3D17QGeometryColliderE@Base 5.5.1
 _ZTIN4Qt3D22QAbstractAspectPrivateE@Base 5.5.1
 _ZTSN4Qt3D12QBoxColliderE@Base 5.5.1
 _ZTSN4Qt3D15QSphereColliderE@Base 5.5.1
 _ZTSN4Qt3D16QCapsuleColliderE@Base 5.5.1
 _ZTSN4Qt3D16QCollisionAspectE@Base 5.5.1
 _ZTSN4Qt3D17QAbstractColliderE@Base 5.5.1
 _ZTSN4Qt3D17QComponentPrivateE@Base 5.5.1
 _ZTSN4Qt3D17QGeometryColliderE@Base 5.5.1
 _ZTSN4Qt3D22QAbstractAspectPrivateE@Base 5.5.1
 _ZTVN4Qt3D12QBoxColliderE@Base 5.5.1
 _ZTVN4Qt3D15QSphereColliderE@Base 5.5.1
 _ZTVN4Qt3D16QCapsuleColliderE@Base 5.5.1
 _ZTVN4Qt3D16QCollisionAspectE@Base 5.5.1
 _ZTVN4Qt3D17QAbstractColliderE@Base 5.5.1
 _ZTVN4Qt3D17QComponentPrivateE@Base 5.5.1
 _ZTVN4Qt3D17QGeometryColliderE@Base 5.5.1
 _ZTVN4Qt3D22QAbstractAspectPrivateE@Base 5.5.1
 (c++)"non-virtual thunk to Qt3D::QCollisionAspect::jobsToExecute(long long)@Base" 5.5.1
 (c++)"non-virtual thunk to Qt3D::QCollisionAspect::sceneNodeAdded(QSharedPointer<Qt3D::QSceneChange>&)@Base" 5.5.1
 (c++)"non-virtual thunk to Qt3D::QCollisionAspect::sceneNodeRemoved(QSharedPointer<Qt3D::QSceneChange>&)@Base" 5.5.1
