# SymbolsHelper-Confirmed: 5.5.1 amd64
libQt53DQuickRenderer.so.5 libqt53dquickrenderer5 #MINVER#
 _ZN4Qt3D6Render5Quick12Quick3DScene11qt_metacallEN11QMetaObject4CallEiPPv@Base 5.5.0
 _ZN4Qt3D6Render5Quick12Quick3DScene11qt_metacastEPKc@Base 5.5.0
 _ZN4Qt3D6Render5Quick12Quick3DScene16staticMetaObjectE@Base 5.5.0
 _ZN4Qt3D6Render5Quick12Quick3DSceneC1EP7QObject@Base 5.5.0
 _ZN4Qt3D6Render5Quick12Quick3DSceneC2EP7QObject@Base 5.5.0
 _ZN4Qt3D6Render5Quick13Quick3DEffect11parameterAtEP16QQmlListPropertyINS_10QParameterEEi@Base 5.5.0
 _ZN4Qt3D6Render5Quick13Quick3DEffect11qt_metacallEN11QMetaObject4CallEiPPv@Base 5.5.0
 _ZN4Qt3D6Render5Quick13Quick3DEffect11qt_metacastEPKc@Base 5.5.0
 _ZN4Qt3D6Render5Quick13Quick3DEffect11techniqueAtEP16QQmlListPropertyINS_10QTechniqueEEi@Base 5.5.0
 _ZN4Qt3D6Render5Quick13Quick3DEffect13parameterListEv@Base 5.5.0
 _ZN4Qt3D6Render5Quick13Quick3DEffect13techniqueListEv@Base 5.5.0
 _ZN4Qt3D6Render5Quick13Quick3DEffect14techniqueCountEP16QQmlListPropertyINS_10QTechniqueEE@Base 5.5.0
 _ZN4Qt3D6Render5Quick13Quick3DEffect15appendParameterEP16QQmlListPropertyINS_10QParameterEEPS4_@Base 5.5.0
 _ZN4Qt3D6Render5Quick13Quick3DEffect15appendTechniqueEP16QQmlListPropertyINS_10QTechniqueEEPS4_@Base 5.5.0
 _ZN4Qt3D6Render5Quick13Quick3DEffect15parametersCountEP16QQmlListPropertyINS_10QParameterEE@Base 5.5.0
 _ZN4Qt3D6Render5Quick13Quick3DEffect16staticMetaObjectE@Base 5.5.0
 _ZN4Qt3D6Render5Quick13Quick3DEffect18clearParameterListEP16QQmlListPropertyINS_10QParameterEE@Base 5.5.0
 _ZN4Qt3D6Render5Quick13Quick3DEffect18clearTechniqueListEP16QQmlListPropertyINS_10QTechniqueEE@Base 5.5.0
 _ZN4Qt3D6Render5Quick13Quick3DEffectC1EP7QObject@Base 5.5.0
 _ZN4Qt3D6Render5Quick13Quick3DEffectC2EP7QObject@Base 5.5.0
 _ZN4Qt3D6Render5Quick15Quick3DGeometry11attributeAtEP16QQmlListPropertyINS_18QAbstractAttributeEEi@Base 5.5.1
 _ZN4Qt3D6Render5Quick15Quick3DGeometry11qt_metacallEN11QMetaObject4CallEiPPv@Base 5.5.1
 _ZN4Qt3D6Render5Quick15Quick3DGeometry11qt_metacastEPKc@Base 5.5.1
 _ZN4Qt3D6Render5Quick15Quick3DGeometry13attributeListEv@Base 5.5.1
 _ZN4Qt3D6Render5Quick15Quick3DGeometry15appendAttributeEP16QQmlListPropertyINS_18QAbstractAttributeEEPS4_@Base 5.5.1
 _ZN4Qt3D6Render5Quick15Quick3DGeometry15attributesCountEP16QQmlListPropertyINS_18QAbstractAttributeEE@Base 5.5.1
 _ZN4Qt3D6Render5Quick15Quick3DGeometry15clearAttributesEP16QQmlListPropertyINS_18QAbstractAttributeEE@Base 5.5.1
 _ZN4Qt3D6Render5Quick15Quick3DGeometry16staticMetaObjectE@Base 5.5.1
 _ZN4Qt3D6Render5Quick15Quick3DGeometryC1EP7QObject@Base 5.5.1
 _ZN4Qt3D6Render5Quick15Quick3DGeometryC2EP7QObject@Base 5.5.1
 _ZN4Qt3D6Render5Quick15Quick3DMaterial11parameterAtEP16QQmlListPropertyINS_10QParameterEEi@Base 5.5.0
 _ZN4Qt3D6Render5Quick15Quick3DMaterial11qt_metacallEN11QMetaObject4CallEiPPv@Base 5.5.0
 _ZN4Qt3D6Render5Quick15Quick3DMaterial11qt_metacastEPKc@Base 5.5.0
 _ZN4Qt3D6Render5Quick15Quick3DMaterial13qmlParametersEv@Base 5.5.0
 _ZN4Qt3D6Render5Quick15Quick3DMaterial14parameterCountEP16QQmlListPropertyINS_10QParameterEE@Base 5.5.0
 _ZN4Qt3D6Render5Quick15Quick3DMaterial15appendParameterEP16QQmlListPropertyINS_10QParameterEEPS4_@Base 5.5.0
 _ZN4Qt3D6Render5Quick15Quick3DMaterial15clearParametersEP16QQmlListPropertyINS_10QParameterEE@Base 5.5.0
 _ZN4Qt3D6Render5Quick15Quick3DMaterial16staticMetaObjectE@Base 5.5.0
 _ZN4Qt3D6Render5Quick15Quick3DMaterialC1EP7QObject@Base 5.5.0
 _ZN4Qt3D6Render5Quick15Quick3DMaterialC2EP7QObject@Base 5.5.0
 _ZN4Qt3D6Render5Quick15Quick3DStateSet11qt_metacallEN11QMetaObject4CallEiPPv@Base 5.5.0
 _ZN4Qt3D6Render5Quick15Quick3DStateSet11qt_metacastEPKc@Base 5.5.0
 _ZN4Qt3D6Render5Quick15Quick3DStateSet13renderStateAtEP16QQmlListPropertyINS_12QRenderStateEEi@Base 5.5.0
 _ZN4Qt3D6Render5Quick15Quick3DStateSet15renderStateListEv@Base 5.5.0
 _ZN4Qt3D6Render5Quick15Quick3DStateSet16renderStateCountEP16QQmlListPropertyINS_12QRenderStateEE@Base 5.5.0
 _ZN4Qt3D6Render5Quick15Quick3DStateSet16staticMetaObjectE@Base 5.5.0
 _ZN4Qt3D6Render5Quick15Quick3DStateSet17appendRenderStateEP16QQmlListPropertyINS_12QRenderStateEEPS4_@Base 5.5.0
 _ZN4Qt3D6Render5Quick15Quick3DStateSet17clearRenderStatesEP16QQmlListPropertyINS_12QRenderStateEE@Base 5.5.0
 _ZN4Qt3D6Render5Quick15Quick3DStateSetC1EP7QObject@Base 5.5.0
 _ZN4Qt3D6Render5Quick15Quick3DStateSetC2EP7QObject@Base 5.5.0
 _ZN4Qt3D6Render5Quick15Quick3DStateSetD0Ev@Base 5.5.0
 _ZN4Qt3D6Render5Quick15Quick3DStateSetD1Ev@Base 5.5.0
 _ZN4Qt3D6Render5Quick15Quick3DStateSetD2Ev@Base 5.5.0
 _ZN4Qt3D6Render5Quick15Quick3DViewport11qt_metacallEN11QMetaObject4CallEiPPv@Base 5.5.0
 _ZN4Qt3D6Render5Quick15Quick3DViewport11qt_metacastEPKc@Base 5.5.0
 _ZN4Qt3D6Render5Quick15Quick3DViewport16staticMetaObjectE@Base 5.5.0
 _ZN4Qt3D6Render5Quick15Quick3DViewportC1EP7QObject@Base 5.5.0
 _ZN4Qt3D6Render5Quick15Quick3DViewportC2EP7QObject@Base 5.5.0
 _ZN4Qt3D6Render5Quick16Quick3DParameter11qt_metacallEN11QMetaObject4CallEiPPv@Base 5.5.0
 _ZN4Qt3D6Render5Quick16Quick3DParameter11qt_metacastEPKc@Base 5.5.0
 _ZN4Qt3D6Render5Quick16Quick3DParameter16staticMetaObjectE@Base 5.5.0
 _ZN4Qt3D6Render5Quick16Quick3DParameterC1EPNS_5QNodeE@Base 5.5.0
 _ZN4Qt3D6Render5Quick16Quick3DParameterC1ERNS1_23Quick3DParameterPrivateEPNS_5QNodeE@Base 5.5.0
 _ZN4Qt3D6Render5Quick16Quick3DParameterC2EPNS_5QNodeE@Base 5.5.0
 _ZN4Qt3D6Render5Quick16Quick3DParameterC2ERNS1_23Quick3DParameterPrivateEPNS_5QNodeE@Base 5.5.0
 _ZN4Qt3D6Render5Quick16Quick3DTechnique11parameterAtEP16QQmlListPropertyINS_10QParameterEEi@Base 5.5.0
 _ZN4Qt3D6Render5Quick16Quick3DTechnique11qt_metacallEN11QMetaObject4CallEiPPv@Base 5.5.0
 _ZN4Qt3D6Render5Quick16Quick3DTechnique11qt_metacastEPKc@Base 5.5.0
 _ZN4Qt3D6Render5Quick16Quick3DTechnique12annotationAtEP16QQmlListPropertyINS_11QAnnotationEEi@Base 5.5.0
 _ZN4Qt3D6Render5Quick16Quick3DTechnique12renderPassAtEP16QQmlListPropertyINS_11QRenderPassEEi@Base 5.5.0
 _ZN4Qt3D6Render5Quick16Quick3DTechnique13parameterListEv@Base 5.5.0
 _ZN4Qt3D6Render5Quick16Quick3DTechnique14annotationListEv@Base 5.5.0
 _ZN4Qt3D6Render5Quick16Quick3DTechnique14renderPassListEv@Base 5.5.0
 _ZN4Qt3D6Render5Quick16Quick3DTechnique15annotationCountEP16QQmlListPropertyINS_11QAnnotationEE@Base 5.5.0
 _ZN4Qt3D6Render5Quick16Quick3DTechnique15appendParameterEP16QQmlListPropertyINS_10QParameterEEPS4_@Base 5.5.0
 _ZN4Qt3D6Render5Quick16Quick3DTechnique15parametersCountEP16QQmlListPropertyINS_10QParameterEE@Base 5.5.0
 _ZN4Qt3D6Render5Quick16Quick3DTechnique15renderPassCountEP16QQmlListPropertyINS_11QRenderPassEE@Base 5.5.0
 _ZN4Qt3D6Render5Quick16Quick3DTechnique16appendAnnotationEP16QQmlListPropertyINS_11QAnnotationEEPS4_@Base 5.5.0
 _ZN4Qt3D6Render5Quick16Quick3DTechnique16appendRenderPassEP16QQmlListPropertyINS_11QRenderPassEEPS4_@Base 5.5.0
 _ZN4Qt3D6Render5Quick16Quick3DTechnique16staticMetaObjectE@Base 5.5.0
 _ZN4Qt3D6Render5Quick16Quick3DTechnique17clearRenderPassesEP16QQmlListPropertyINS_11QRenderPassEE@Base 5.5.0
 _ZN4Qt3D6Render5Quick16Quick3DTechnique18clearParameterListEP16QQmlListPropertyINS_10QParameterEE@Base 5.5.0
 _ZN4Qt3D6Render5Quick16Quick3DTechnique19clearAnnotationListEP16QQmlListPropertyINS_11QAnnotationEE@Base 5.5.0
 _ZN4Qt3D6Render5Quick16Quick3DTechniqueC1EP7QObject@Base 5.5.0
 _ZN4Qt3D6Render5Quick16Quick3DTechniqueC2EP7QObject@Base 5.5.0
 _ZN4Qt3D6Render5Quick17Quick3DRenderPass11bindingListEv@Base 5.5.0
 _ZN4Qt3D6Render5Quick17Quick3DRenderPass11parameterAtEP16QQmlListPropertyINS_10QParameterEEi@Base 5.5.0
 _ZN4Qt3D6Render5Quick17Quick3DRenderPass11qt_metacallEN11QMetaObject4CallEiPPv@Base 5.5.0
 _ZN4Qt3D6Render5Quick17Quick3DRenderPass11qt_metacastEPKc@Base 5.5.0
 _ZN4Qt3D6Render5Quick17Quick3DRenderPass12annotationAtEP16QQmlListPropertyINS_11QAnnotationEEi@Base 5.5.0
 _ZN4Qt3D6Render5Quick17Quick3DRenderPass13appendBindingEP16QQmlListPropertyINS_17QParameterMappingEEPS4_@Base 5.5.0
 _ZN4Qt3D6Render5Quick17Quick3DRenderPass13bindingsCountEP16QQmlListPropertyINS_17QParameterMappingEE@Base 5.5.0
 _ZN4Qt3D6Render5Quick17Quick3DRenderPass13clearBindingsEP16QQmlListPropertyINS_17QParameterMappingEE@Base 5.5.0
 _ZN4Qt3D6Render5Quick17Quick3DRenderPass13parameterListEv@Base 5.5.0
 _ZN4Qt3D6Render5Quick17Quick3DRenderPass13renderStateAtEP16QQmlListPropertyINS_12QRenderStateEEi@Base 5.5.0
 _ZN4Qt3D6Render5Quick17Quick3DRenderPass14annotationListEv@Base 5.5.0
 _ZN4Qt3D6Render5Quick17Quick3DRenderPass15appendParameterEP16QQmlListPropertyINS_10QParameterEEPS4_@Base 5.5.0
 _ZN4Qt3D6Render5Quick17Quick3DRenderPass15parametersCountEP16QQmlListPropertyINS_10QParameterEE@Base 5.5.0
 _ZN4Qt3D6Render5Quick17Quick3DRenderPass15renderStateListEv@Base 5.5.0
 _ZN4Qt3D6Render5Quick17Quick3DRenderPass16annotationsCountEP16QQmlListPropertyINS_11QAnnotationEE@Base 5.5.0
 _ZN4Qt3D6Render5Quick17Quick3DRenderPass16appendAnnotationEP16QQmlListPropertyINS_11QAnnotationEEPS4_@Base 5.5.0
 _ZN4Qt3D6Render5Quick17Quick3DRenderPass16clearAnnotationsEP16QQmlListPropertyINS_11QAnnotationEE@Base 5.5.0
 _ZN4Qt3D6Render5Quick17Quick3DRenderPass16renderStateCountEP16QQmlListPropertyINS_12QRenderStateEE@Base 5.5.0
 _ZN4Qt3D6Render5Quick17Quick3DRenderPass16staticMetaObjectE@Base 5.5.0
 _ZN4Qt3D6Render5Quick17Quick3DRenderPass17appendRenderStateEP16QQmlListPropertyINS_12QRenderStateEEPS4_@Base 5.5.0
 _ZN4Qt3D6Render5Quick17Quick3DRenderPass17clearRenderStatesEP16QQmlListPropertyINS_12QRenderStateEE@Base 5.5.0
 _ZN4Qt3D6Render5Quick17Quick3DRenderPass18clearParameterListEP16QQmlListPropertyINS_10QParameterEE@Base 5.5.0
 _ZN4Qt3D6Render5Quick17Quick3DRenderPass9bindingAtEP16QQmlListPropertyINS_17QParameterMappingEEi@Base 5.5.0
 _ZN4Qt3D6Render5Quick17Quick3DRenderPassC1EP7QObject@Base 5.5.0
 _ZN4Qt3D6Render5Quick17Quick3DRenderPassC2EP7QObject@Base 5.5.0
 _ZN4Qt3D6Render5Quick17Quick3DShaderData11qt_metacallEN11QMetaObject4CallEiPPv@Base 5.5.0
 _ZN4Qt3D6Render5Quick17Quick3DShaderData11qt_metacastEPKc@Base 5.5.0
 _ZN4Qt3D6Render5Quick17Quick3DShaderData16staticMetaObjectE@Base 5.5.0
 _ZN4Qt3D6Render5Quick17Quick3DShaderDataC1EPNS_5QNodeE@Base 5.5.0
 _ZN4Qt3D6Render5Quick17Quick3DShaderDataC2EPNS_5QNodeE@Base 5.5.0
 _ZN4Qt3D6Render5Quick17Quick3DSortMethod11criterionAtEP16QQmlListPropertyINS_14QSortCriterionEEi@Base 5.5.0
 _ZN4Qt3D6Render5Quick17Quick3DSortMethod11qt_metacallEN11QMetaObject4CallEiPPv@Base 5.5.0
 _ZN4Qt3D6Render5Quick17Quick3DSortMethod11qt_metacastEPKc@Base 5.5.0
 _ZN4Qt3D6Render5Quick17Quick3DSortMethod12criteriaListEv@Base 5.5.0
 _ZN4Qt3D6Render5Quick17Quick3DSortMethod13clearCriteriaEP16QQmlListPropertyINS_14QSortCriterionEE@Base 5.5.0
 _ZN4Qt3D6Render5Quick17Quick3DSortMethod13criteriaCountEP16QQmlListPropertyINS_14QSortCriterionEE@Base 5.5.0
 _ZN4Qt3D6Render5Quick17Quick3DSortMethod15appendCriterionEP16QQmlListPropertyINS_14QSortCriterionEEPS4_@Base 5.5.0
 _ZN4Qt3D6Render5Quick17Quick3DSortMethod16staticMetaObjectE@Base 5.5.0
 _ZN4Qt3D6Render5Quick17Quick3DSortMethodC1EP7QObject@Base 5.5.0
 _ZN4Qt3D6Render5Quick17Quick3DSortMethodC2EP7QObject@Base 5.5.0
 _ZN4Qt3D6Render5Quick19Quick3DRenderTarget11qt_metacallEN11QMetaObject4CallEiPPv@Base 5.5.0
 _ZN4Qt3D6Render5Quick19Quick3DRenderTarget11qt_metacastEPKc@Base 5.5.0
 _ZN4Qt3D6Render5Quick19Quick3DRenderTarget14qmlAttachmentsEv@Base 5.5.0
 _ZN4Qt3D6Render5Quick19Quick3DRenderTarget16staticMetaObjectE@Base 5.5.0
 _ZN4Qt3D6Render5Quick19Quick3DRenderTarget18renderAttachmentAtEP16QQmlListPropertyINS_17QRenderAttachmentEEi@Base 5.5.0
 _ZN4Qt3D6Render5Quick19Quick3DRenderTarget21renderAttachmentCountEP16QQmlListPropertyINS_17QRenderAttachmentEE@Base 5.5.0
 _ZN4Qt3D6Render5Quick19Quick3DRenderTarget22appendRenderAttachmentEP16QQmlListPropertyINS_17QRenderAttachmentEEPS4_@Base 5.5.0
 _ZN4Qt3D6Render5Quick19Quick3DRenderTarget22clearRenderAttachmentsEP16QQmlListPropertyINS_17QRenderAttachmentEE@Base 5.5.0
 _ZN4Qt3D6Render5Quick19Quick3DRenderTargetC1EP7QObject@Base 5.5.0
 _ZN4Qt3D6Render5Quick19Quick3DRenderTargetC2EP7QObject@Base 5.5.0
 _ZN4Qt3D6Render5Quick20ShaderPropertyParser13applyBindingsEP7QObjectP16QQmlCompiledDataRK5QListIPKN3QV412CompiledData7BindingEE@Base 5.5.0
 _ZN4Qt3D6Render5Quick20ShaderPropertyParser14verifyBindingsEPKN3QV412CompiledData4UnitERK5QListIPKNS4_7BindingEE@Base 5.5.0
 _ZN4Qt3D6Render5Quick20ShaderPropertyParserC1Ev@Base 5.5.0
 _ZN4Qt3D6Render5Quick20ShaderPropertyParserC2Ev@Base 5.5.0
 _ZN4Qt3D6Render5Quick22Quick3DShaderDataArray10valueCountEP16QQmlListPropertyINS_11QShaderDataEE@Base 5.5.0
 _ZN4Qt3D6Render5Quick22Quick3DShaderDataArray10valuesListEv@Base 5.5.0
 _ZN4Qt3D6Render5Quick22Quick3DShaderDataArray11appendValueEP16QQmlListPropertyINS_11QShaderDataEEPS4_@Base 5.5.0
 _ZN4Qt3D6Render5Quick22Quick3DShaderDataArray11clearValuesEP16QQmlListPropertyINS_11QShaderDataEE@Base 5.5.0
 _ZN4Qt3D6Render5Quick22Quick3DShaderDataArray11qt_metacallEN11QMetaObject4CallEiPPv@Base 5.5.0
 _ZN4Qt3D6Render5Quick22Quick3DShaderDataArray11qt_metacastEPKc@Base 5.5.0
 _ZN4Qt3D6Render5Quick22Quick3DShaderDataArray16staticMetaObjectE@Base 5.5.0
 _ZN4Qt3D6Render5Quick22Quick3DShaderDataArray4copyEPKNS_5QNodeE@Base 5.5.0
 _ZN4Qt3D6Render5Quick22Quick3DShaderDataArray7valueAtEP16QQmlListPropertyINS_11QShaderDataEEi@Base 5.5.0
 _ZN4Qt3D6Render5Quick22Quick3DShaderDataArrayC1EPNS_5QNodeE@Base 5.5.0
 _ZN4Qt3D6Render5Quick22Quick3DShaderDataArrayC2EPNS_5QNodeE@Base 5.5.0
 _ZN4Qt3D6Render5Quick22Quick3DShaderDataArrayD0Ev@Base 5.5.1
 _ZN4Qt3D6Render5Quick22Quick3DShaderDataArrayD1Ev@Base 5.5.1
 _ZN4Qt3D6Render5Quick22Quick3DShaderDataArrayD2Ev@Base 5.5.1
 _ZN4Qt3D6Render5Quick22Quick3DTechniqueFilter11parameterAtEP16QQmlListPropertyINS_10QParameterEEi@Base 5.5.0
 _ZN4Qt3D6Render5Quick22Quick3DTechniqueFilter11qt_metacallEN11QMetaObject4CallEiPPv@Base 5.5.0
 _ZN4Qt3D6Render5Quick22Quick3DTechniqueFilter11qt_metacastEPKc@Base 5.5.0
 _ZN4Qt3D6Render5Quick22Quick3DTechniqueFilter11requireListEv@Base 5.5.0
 _ZN4Qt3D6Render5Quick22Quick3DTechniqueFilter13appendRequireEP16QQmlListPropertyINS_11QAnnotationEEPS4_@Base 5.5.0
 _ZN4Qt3D6Render5Quick22Quick3DTechniqueFilter13clearRequiresEP16QQmlListPropertyINS_11QAnnotationEE@Base 5.5.0
 _ZN4Qt3D6Render5Quick22Quick3DTechniqueFilter13parameterListEv@Base 5.5.0
 _ZN4Qt3D6Render5Quick22Quick3DTechniqueFilter13requiresCountEP16QQmlListPropertyINS_11QAnnotationEE@Base 5.5.0
 _ZN4Qt3D6Render5Quick22Quick3DTechniqueFilter15appendParameterEP16QQmlListPropertyINS_10QParameterEEPS4_@Base 5.5.0
 _ZN4Qt3D6Render5Quick22Quick3DTechniqueFilter15parametersCountEP16QQmlListPropertyINS_10QParameterEE@Base 5.5.0
 _ZN4Qt3D6Render5Quick22Quick3DTechniqueFilter16staticMetaObjectE@Base 5.5.0
 _ZN4Qt3D6Render5Quick22Quick3DTechniqueFilter18clearParameterListEP16QQmlListPropertyINS_10QParameterEE@Base 5.5.0
 _ZN4Qt3D6Render5Quick22Quick3DTechniqueFilter9requireAtEP16QQmlListPropertyINS_11QAnnotationEEi@Base 5.5.0
 _ZN4Qt3D6Render5Quick22Quick3DTechniqueFilterC1EP7QObject@Base 5.5.0
 _ZN4Qt3D6Render5Quick22Quick3DTechniqueFilterC2EP7QObject@Base 5.5.0
 _ZN4Qt3D6Render5Quick23Quick3DRenderPassFilter11includeListEv@Base 5.5.0
 _ZN4Qt3D6Render5Quick23Quick3DRenderPassFilter11parameterAtEP16QQmlListPropertyINS_10QParameterEEi@Base 5.5.0
 _ZN4Qt3D6Render5Quick23Quick3DRenderPassFilter11qt_metacallEN11QMetaObject4CallEiPPv@Base 5.5.0
 _ZN4Qt3D6Render5Quick23Quick3DRenderPassFilter11qt_metacastEPKc@Base 5.5.0
 _ZN4Qt3D6Render5Quick23Quick3DRenderPassFilter13appendIncludeEP16QQmlListPropertyINS_11QAnnotationEEPS4_@Base 5.5.0
 _ZN4Qt3D6Render5Quick23Quick3DRenderPassFilter13clearIncludesEP16QQmlListPropertyINS_11QAnnotationEE@Base 5.5.0
 _ZN4Qt3D6Render5Quick23Quick3DRenderPassFilter13includesCountEP16QQmlListPropertyINS_11QAnnotationEE@Base 5.5.0
 _ZN4Qt3D6Render5Quick23Quick3DRenderPassFilter13parameterListEv@Base 5.5.0
 _ZN4Qt3D6Render5Quick23Quick3DRenderPassFilter15appendParameterEP16QQmlListPropertyINS_10QParameterEEPS4_@Base 5.5.0
 _ZN4Qt3D6Render5Quick23Quick3DRenderPassFilter15parametersCountEP16QQmlListPropertyINS_10QParameterEE@Base 5.5.0
 _ZN4Qt3D6Render5Quick23Quick3DRenderPassFilter16staticMetaObjectE@Base 5.5.0
 _ZN4Qt3D6Render5Quick23Quick3DRenderPassFilter18clearParameterListEP16QQmlListPropertyINS_10QParameterEE@Base 5.5.0
 _ZN4Qt3D6Render5Quick23Quick3DRenderPassFilter9includeAtEP16QQmlListPropertyINS_11QAnnotationEEi@Base 5.5.0
 _ZN4Qt3D6Render5Quick23Quick3DRenderPassFilterC1EP7QObject@Base 5.5.0
 _ZN4Qt3D6Render5Quick23Quick3DRenderPassFilterC2EP7QObject@Base 5.5.0
 _ZN4Qt3D6Render5Quick23Quick3DTextureExtension11qt_metacallEN11QMetaObject4CallEiPPv@Base 5.5.0
 _ZN4Qt3D6Render5Quick23Quick3DTextureExtension11qt_metacastEPKc@Base 5.5.0
 _ZN4Qt3D6Render5Quick23Quick3DTextureExtension13textureImagesEv@Base 5.5.0
 _ZN4Qt3D6Render5Quick23Quick3DTextureExtension14textureImageAtEP16QQmlListPropertyINS_21QAbstractTextureImageEEi@Base 5.5.0
 _ZN4Qt3D6Render5Quick23Quick3DTextureExtension16staticMetaObjectE@Base 5.5.0
 _ZN4Qt3D6Render5Quick23Quick3DTextureExtension17textureImageCountEP16QQmlListPropertyINS_21QAbstractTextureImageEE@Base 5.5.0
 _ZN4Qt3D6Render5Quick23Quick3DTextureExtension18appendTextureImageEP16QQmlListPropertyINS_21QAbstractTextureImageEEPS4_@Base 5.5.0
 _ZN4Qt3D6Render5Quick23Quick3DTextureExtension21clearTextureImageListEP16QQmlListPropertyINS_21QAbstractTextureImageEE@Base 5.5.0
 _ZN4Qt3D6Render5Quick23Quick3DTextureExtensionC1EP7QObject@Base 5.5.0
 _ZN4Qt3D6Render5Quick23Quick3DTextureExtensionC2EP7QObject@Base 5.5.0
 _ZN4Qt3D6Render5Quick27Quick3DRenderTargetSelector11qt_metacallEN11QMetaObject4CallEiPPv@Base 5.5.0
 _ZN4Qt3D6Render5Quick27Quick3DRenderTargetSelector11qt_metacastEPKc@Base 5.5.0
 _ZN4Qt3D6Render5Quick27Quick3DRenderTargetSelector14setDrawBuffersERK5QListI8QVariantE@Base 5.5.0
 _ZN4Qt3D6Render5Quick27Quick3DRenderTargetSelector16staticMetaObjectE@Base 5.5.0
 _ZN4Qt3D6Render5Quick27Quick3DRenderTargetSelector18drawBuffersChangedEv@Base 5.5.0
 _ZN4Qt3D6Render5Quick27Quick3DRenderTargetSelectorC1EP7QObject@Base 5.5.0
 _ZN4Qt3D6Render5Quick27Quick3DRenderTargetSelectorC2EP7QObject@Base 5.5.0
 _ZN4Qt3D6Render5Quick27Quick3DRenderTargetSelectorD0Ev@Base 5.5.0
 _ZN4Qt3D6Render5Quick27Quick3DRenderTargetSelectorD1Ev@Base 5.5.0
 _ZN4Qt3D6Render5Quick27Quick3DRenderTargetSelectorD2Ev@Base 5.5.0
 _ZNK4Qt3D6Render5Quick12Quick3DScene10metaObjectEv@Base 5.5.0
 _ZNK4Qt3D6Render5Quick13Quick3DEffect10metaObjectEv@Base 5.5.0
 _ZNK4Qt3D6Render5Quick15Quick3DGeometry10metaObjectEv@Base 5.5.1
 _ZNK4Qt3D6Render5Quick15Quick3DMaterial10metaObjectEv@Base 5.5.0
 _ZNK4Qt3D6Render5Quick15Quick3DStateSet10metaObjectEv@Base 5.5.0
 _ZNK4Qt3D6Render5Quick15Quick3DViewport10metaObjectEv@Base 5.5.0
 _ZNK4Qt3D6Render5Quick16Quick3DParameter10metaObjectEv@Base 5.5.0
 _ZNK4Qt3D6Render5Quick16Quick3DTechnique10metaObjectEv@Base 5.5.0
 _ZNK4Qt3D6Render5Quick17Quick3DRenderPass10metaObjectEv@Base 5.5.0
 _ZNK4Qt3D6Render5Quick17Quick3DShaderData10metaObjectEv@Base 5.5.0
 _ZNK4Qt3D6Render5Quick17Quick3DSortMethod10metaObjectEv@Base 5.5.0
 _ZNK4Qt3D6Render5Quick19Quick3DRenderTarget10metaObjectEv@Base 5.5.0
 _ZNK4Qt3D6Render5Quick22Quick3DShaderDataArray10metaObjectEv@Base 5.5.0
 _ZNK4Qt3D6Render5Quick22Quick3DShaderDataArray6valuesEv@Base 5.5.0
 _ZNK4Qt3D6Render5Quick22Quick3DTechniqueFilter10metaObjectEv@Base 5.5.0
 _ZNK4Qt3D6Render5Quick23Quick3DRenderPassFilter10metaObjectEv@Base 5.5.0
 _ZNK4Qt3D6Render5Quick23Quick3DTextureExtension10metaObjectEv@Base 5.5.0
 _ZNK4Qt3D6Render5Quick27Quick3DRenderTargetSelector10metaObjectEv@Base 5.5.0
 _ZNK4Qt3D6Render5Quick27Quick3DRenderTargetSelector11drawBuffersEv@Base 5.5.0
 _ZTI16QQmlCustomParser@Base 5.5.0
 _ZTIN4Qt3D23PropertyReaderInterfaceE@Base 5.5.0
 _ZTIN4Qt3D6Render5Quick12Quick3DSceneE@Base 5.5.0
 _ZTIN4Qt3D6Render5Quick13Quick3DEffectE@Base 5.5.0
 _ZTIN4Qt3D6Render5Quick15Quick3DGeometryE@Base 5.5.1
 _ZTIN4Qt3D6Render5Quick15Quick3DMaterialE@Base 5.5.0
 _ZTIN4Qt3D6Render5Quick15Quick3DStateSetE@Base 5.5.0
 _ZTIN4Qt3D6Render5Quick15Quick3DViewportE@Base 5.5.0
 _ZTIN4Qt3D6Render5Quick16Quick3DParameterE@Base 5.5.0
 _ZTIN4Qt3D6Render5Quick16Quick3DTechniqueE@Base 5.5.0
 _ZTIN4Qt3D6Render5Quick17Quick3DRenderPassE@Base 5.5.0
 _ZTIN4Qt3D6Render5Quick17Quick3DShaderDataE@Base 5.5.0
 _ZTIN4Qt3D6Render5Quick17Quick3DSortMethodE@Base 5.5.0
 _ZTIN4Qt3D6Render5Quick19Quick3DRenderTargetE@Base 5.5.0
 _ZTIN4Qt3D6Render5Quick20ShaderPropertyParserE@Base 5.5.0
 _ZTIN4Qt3D6Render5Quick22Quick3DShaderDataArrayE@Base 5.5.0
 _ZTIN4Qt3D6Render5Quick22Quick3DTechniqueFilterE@Base 5.5.0
 _ZTIN4Qt3D6Render5Quick23Quick3DRenderPassFilterE@Base 5.5.0
 _ZTIN4Qt3D6Render5Quick23Quick3DTextureExtensionE@Base 5.5.0
 _ZTIN4Qt3D6Render5Quick27Quick3DRenderTargetSelectorE@Base 5.5.0
 _ZTS16QQmlCustomParser@Base 5.5.0
 _ZTSN4Qt3D23PropertyReaderInterfaceE@Base 5.5.0
 _ZTSN4Qt3D6Render5Quick12Quick3DSceneE@Base 5.5.0
 _ZTSN4Qt3D6Render5Quick13Quick3DEffectE@Base 5.5.0
 _ZTSN4Qt3D6Render5Quick15Quick3DGeometryE@Base 5.5.1
 _ZTSN4Qt3D6Render5Quick15Quick3DMaterialE@Base 5.5.0
 _ZTSN4Qt3D6Render5Quick15Quick3DStateSetE@Base 5.5.0
 _ZTSN4Qt3D6Render5Quick15Quick3DViewportE@Base 5.5.0
 _ZTSN4Qt3D6Render5Quick16Quick3DParameterE@Base 5.5.0
 _ZTSN4Qt3D6Render5Quick16Quick3DTechniqueE@Base 5.5.0
 _ZTSN4Qt3D6Render5Quick17Quick3DRenderPassE@Base 5.5.0
 _ZTSN4Qt3D6Render5Quick17Quick3DShaderDataE@Base 5.5.0
 _ZTSN4Qt3D6Render5Quick17Quick3DSortMethodE@Base 5.5.0
 _ZTSN4Qt3D6Render5Quick19Quick3DRenderTargetE@Base 5.5.0
 _ZTSN4Qt3D6Render5Quick20ShaderPropertyParserE@Base 5.5.0
 _ZTSN4Qt3D6Render5Quick22Quick3DShaderDataArrayE@Base 5.5.0
 _ZTSN4Qt3D6Render5Quick22Quick3DTechniqueFilterE@Base 5.5.0
 _ZTSN4Qt3D6Render5Quick23Quick3DRenderPassFilterE@Base 5.5.0
 _ZTSN4Qt3D6Render5Quick23Quick3DTextureExtensionE@Base 5.5.0
 _ZTSN4Qt3D6Render5Quick27Quick3DRenderTargetSelectorE@Base 5.5.0
 _ZTV16QQmlCustomParser@Base 5.5.0
 _ZTVN4Qt3D6Render5Quick12Quick3DSceneE@Base 5.5.0
 _ZTVN4Qt3D6Render5Quick13Quick3DEffectE@Base 5.5.0
 _ZTVN4Qt3D6Render5Quick15Quick3DGeometryE@Base 5.5.1
 _ZTVN4Qt3D6Render5Quick15Quick3DMaterialE@Base 5.5.0
 _ZTVN4Qt3D6Render5Quick15Quick3DStateSetE@Base 5.5.0
 _ZTVN4Qt3D6Render5Quick15Quick3DViewportE@Base 5.5.0
 _ZTVN4Qt3D6Render5Quick16Quick3DParameterE@Base 5.5.0
 _ZTVN4Qt3D6Render5Quick16Quick3DTechniqueE@Base 5.5.0
 _ZTVN4Qt3D6Render5Quick17Quick3DRenderPassE@Base 5.5.0
 _ZTVN4Qt3D6Render5Quick17Quick3DShaderDataE@Base 5.5.0
 _ZTVN4Qt3D6Render5Quick17Quick3DSortMethodE@Base 5.5.0
 _ZTVN4Qt3D6Render5Quick19Quick3DRenderTargetE@Base 5.5.0
 _ZTVN4Qt3D6Render5Quick20ShaderPropertyParserE@Base 5.5.0
 _ZTVN4Qt3D6Render5Quick22Quick3DShaderDataArrayE@Base 5.5.0
 _ZTVN4Qt3D6Render5Quick22Quick3DTechniqueFilterE@Base 5.5.0
 _ZTVN4Qt3D6Render5Quick23Quick3DRenderPassFilterE@Base 5.5.0
 _ZTVN4Qt3D6Render5Quick23Quick3DTextureExtensionE@Base 5.5.0
 _ZTVN4Qt3D6Render5Quick27Quick3DRenderTargetSelectorE@Base 5.5.0
