# SymbolsHelper-Confirmed: 5.5.0 amd64
libQt53DCore.so.5 libqt53dcore5 #MINVER#
 _ZN4Qt3D10QAspectJob13addDependencyE12QWeakPointerIS0_E@Base 5.5.0
 _ZN4Qt3D10QAspectJobC1ERNS_17QAspectJobPrivateE@Base 5.5.0
 _ZN4Qt3D10QAspectJobC1Ev@Base 5.5.0
 _ZN4Qt3D10QAspectJobC2ERNS_17QAspectJobPrivateE@Base 5.5.0
 _ZN4Qt3D10QAspectJobC2Ev@Base 5.5.0
 _ZN4Qt3D10QAspectJobD0Ev@Base 5.5.0
 _ZN4Qt3D10QAspectJobD1Ev@Base 5.5.0
 _ZN4Qt3D10QAspectJobD2Ev@Base 5.5.0
 _ZN4Qt3D10QComponent10setEnabledEb@Base 5.5.0
 _ZN4Qt3D10QComponent11qt_metacallEN11QMetaObject4CallEiPPv@Base 5.5.0
 _ZN4Qt3D10QComponent11qt_metacastEPKc@Base 5.5.0
 _ZN4Qt3D10QComponent12setShareableEb@Base 5.5.0
 _ZN4Qt3D10QComponent14enabledChangedEv@Base 5.5.0
 _ZN4Qt3D10QComponent16shareableChangedEv@Base 5.5.0
 _ZN4Qt3D10QComponent16staticMetaObjectE@Base 5.5.0
 _ZN4Qt3D10QComponent4copyEPKNS_5QNodeE@Base 5.5.0
 _ZN4Qt3D10QComponentC1EPNS_5QNodeE@Base 5.5.0
 _ZN4Qt3D10QComponentC1ERNS_17QComponentPrivateEPNS_5QNodeE@Base 5.5.0
 _ZN4Qt3D10QComponentC2EPNS_5QNodeE@Base 5.5.0
 _ZN4Qt3D10QComponentC2ERNS_17QComponentPrivateEPNS_5QNodeE@Base 5.5.0
 _ZN4Qt3D10QComponentD0Ev@Base 5.5.0
 _ZN4Qt3D10QComponentD1Ev@Base 5.5.0
 _ZN4Qt3D10QComponentD2Ev@Base 5.5.0
 _ZN4Qt3D10QTransform11qt_metacallEN11QMetaObject4CallEiPPv@Base 5.5.0
 _ZN4Qt3D10QTransform11qt_metacastEPKc@Base 5.5.0
 _ZN4Qt3D10QTransform12addTransformEPNS_18QAbstractTransformE@Base 5.5.0
 _ZN4Qt3D10QTransform13matrixChangedEv@Base 5.5.0
 _ZN4Qt3D10QTransform15removeTransformEPNS_18QAbstractTransformE@Base 5.5.0
 _ZN4Qt3D10QTransform16staticMetaObjectE@Base 5.5.0
 _ZN4Qt3D10QTransform17transformsChangedEv@Base 5.5.0
 _ZN4Qt3D10QTransform4copyEPKNS_5QNodeE@Base 5.5.0
 _ZN4Qt3D10QTransformC1E5QListIPNS_18QAbstractTransformEEPNS_5QNodeE@Base 5.5.0
 _ZN4Qt3D10QTransformC1EPNS_18QAbstractTransformEPNS_5QNodeE@Base 5.5.0
 _ZN4Qt3D10QTransformC1EPNS_5QNodeE@Base 5.5.0
 _ZN4Qt3D10QTransformC1ERNS_17QTransformPrivateEPNS_5QNodeE@Base 5.5.0
 _ZN4Qt3D10QTransformC2E5QListIPNS_18QAbstractTransformEEPNS_5QNodeE@Base 5.5.0
 _ZN4Qt3D10QTransformC2EPNS_18QAbstractTransformEPNS_5QNodeE@Base 5.5.0
 _ZN4Qt3D10QTransformC2EPNS_5QNodeE@Base 5.5.0
 _ZN4Qt3D10QTransformC2ERNS_17QTransformPrivateEPNS_5QNodeE@Base 5.5.0
 _ZN4Qt3D10QTransformD0Ev@Base 5.5.0
 _ZN4Qt3D10QTransformD1Ev@Base 5.5.0
 _ZN4Qt3D10QTransformD2Ev@Base 5.5.0
 _ZN4Qt3D10QUrlHelper19urlToLocalFileOrQrcERK4QUrl@Base 5.5.0
 _ZN4Qt3D11QCameraLens10topChangedEv@Base 5.5.0
 _ZN4Qt3D11QCameraLens11leftChangedEv@Base 5.5.0
 _ZN4Qt3D11QCameraLens11qt_metacallEN11QMetaObject4CallEiPPv@Base 5.5.0
 _ZN4Qt3D11QCameraLens11qt_metacastEPKc@Base 5.5.0
 _ZN4Qt3D11QCameraLens11setFarPlaneEf@Base 5.5.0
 _ZN4Qt3D11QCameraLens12rightChangedEv@Base 5.5.0
 _ZN4Qt3D11QCameraLens12setNearPlaneEf@Base 5.5.0
 _ZN4Qt3D11QCameraLens13bottomChangedEv@Base 5.5.0
 _ZN4Qt3D11QCameraLens14setAspectRatioEf@Base 5.5.0
 _ZN4Qt3D11QCameraLens14setFieldOfViewEf@Base 5.5.0
 _ZN4Qt3D11QCameraLens15farPlaneChangedEv@Base 5.5.0
 _ZN4Qt3D11QCameraLens16nearPlaneChangedEv@Base 5.5.0
 _ZN4Qt3D11QCameraLens16staticMetaObjectE@Base 5.5.0
 _ZN4Qt3D11QCameraLens17setProjectionTypeENS0_14ProjectionTypeE@Base 5.5.0
 _ZN4Qt3D11QCameraLens18aspectRatioChangedEv@Base 5.5.0
 _ZN4Qt3D11QCameraLens18fieldOfViewChangedEv@Base 5.5.0
 _ZN4Qt3D11QCameraLens20setFrustumProjectionEffffff@Base 5.5.0
 _ZN4Qt3D11QCameraLens21projectionTypeChangedEv@Base 5.5.0
 _ZN4Qt3D11QCameraLens23projectionMatrixChangedEv@Base 5.5.0
 _ZN4Qt3D11QCameraLens24setPerspectiveProjectionEffff@Base 5.5.0
 _ZN4Qt3D11QCameraLens25setOrthographicProjectionEffffff@Base 5.5.0
 _ZN4Qt3D11QCameraLens4copyEPKNS_5QNodeE@Base 5.5.0
 _ZN4Qt3D11QCameraLens6setTopEf@Base 5.5.0
 _ZN4Qt3D11QCameraLens7setLeftEf@Base 5.5.0
 _ZN4Qt3D11QCameraLens8setRightEf@Base 5.5.0
 _ZN4Qt3D11QCameraLens9setBottomEf@Base 5.5.0
 _ZN4Qt3D11QCameraLensC1EPNS_5QNodeE@Base 5.5.0
 _ZN4Qt3D11QCameraLensC1ERNS_18QCameraLensPrivateEPNS_5QNodeE@Base 5.5.0
 _ZN4Qt3D11QCameraLensC2EPNS_5QNodeE@Base 5.5.0
 _ZN4Qt3D11QCameraLensC2ERNS_18QCameraLensPrivateEPNS_5QNodeE@Base 5.5.0
 _ZN4Qt3D12QBackendNode10setFactoryEPKNS_19QBackendNodeFactoryE@Base 5.5.0
 _ZN4Qt3D12QBackendNode15notifyObserversERK14QSharedPointerINS_12QSceneChangeEE@Base 5.5.0
 _ZN4Qt3D12QBackendNode7setPeerEPNS_5QNodeE@Base 5.5.0
 _ZN4Qt3D12QBackendNodeC1ENS0_4ModeE@Base 5.5.0
 _ZN4Qt3D12QBackendNodeC1ERNS_19QBackendNodePrivateE@Base 5.5.0
 _ZN4Qt3D12QBackendNodeC2ENS0_4ModeE@Base 5.5.0
 _ZN4Qt3D12QBackendNodeC2ERNS_19QBackendNodePrivateE@Base 5.5.0
 _ZN4Qt3D12QBackendNodeD0Ev@Base 5.5.0
 _ZN4Qt3D12QBackendNodeD1Ev@Base 5.5.0
 _ZN4Qt3D12QBackendNodeD2Ev@Base 5.5.0
 _ZN4Qt3D12QNodePrivate10insertTreeEPNS_5QNodeEi@Base 5.5.0
 _ZN4Qt3D12QNodePrivate10setArbiterEPNS_26QLockableObserverInterfaceE@Base 5.5.0
 _ZN4Qt3D12QNodePrivate11removeChildEPNS_5QNodeE@Base 5.5.0
 _ZN4Qt3D12QNodePrivate14nodePtrDeleterEPNS_5QNodeE@Base 5.5.0
 _ZN4Qt3D12QNodePrivate15notifyObserversERK14QSharedPointerINS_12QSceneChangeEE@Base 5.5.0
 _ZN4Qt3D12QNodePrivate15propertyChangedEi@Base 5.5.0
 _ZN4Qt3D12QNodePrivate17removeAllChildrenEv@Base 5.5.0
 _ZN4Qt3D12QNodePrivate19m_clonesLookupTableE@Base 5.5.0
 _ZN4Qt3D12QNodePrivate20notifyPropertyChangeEPKcRK8QVariant@Base 5.5.0
 _ZN4Qt3D12QNodePrivate26registerNotifiedPropertiesEv@Base 5.5.0
 _ZN4Qt3D12QNodePrivate28unregisterNotifiedPropertiesEv@Base 5.5.0
 _ZN4Qt3D12QNodePrivate3getEPNS_5QNodeE@Base 5.5.0
 _ZN4Qt3D12QNodePrivate8addChildEPNS_5QNodeE@Base 5.5.0
 _ZN4Qt3D12QNodePrivate8setSceneEPNS_15QSceneInterfaceE@Base 5.5.0
 _ZN4Qt3D12QNodePrivateC1Ev@Base 5.5.0
 _ZN4Qt3D12QNodePrivateC2Ev@Base 5.5.0
 _ZN4Qt3D12QNodeVisitor19setTraverseDisabledEb@Base 5.5.0
 _ZN4Qt3D12QNodeVisitorC1Ev@Base 5.5.0
 _ZN4Qt3D12QNodeVisitorC2Ev@Base 5.5.0
 _ZN4Qt3D12QNodeVisitorD0Ev@Base 5.5.0
 _ZN4Qt3D12QNodeVisitorD1Ev@Base 5.5.0
 _ZN4Qt3D12QNodeVisitorD2Ev@Base 5.5.0
 _ZN4Qt3D12QSceneChangeC1ENS_10ChangeFlagENS0_14ObservableTypeERKNS_7QNodeIdENS0_8PriorityE@Base 5.5.0
 _ZN4Qt3D12QSceneChangeC1ERNS_19QSceneChangePrivateE@Base 5.5.0
 _ZN4Qt3D12QSceneChangeC1ERNS_19QSceneChangePrivateENS_10ChangeFlagENS0_14ObservableTypeERKNS_7QNodeIdENS0_8PriorityE@Base 5.5.0
 _ZN4Qt3D12QSceneChangeC2ENS_10ChangeFlagENS0_14ObservableTypeERKNS_7QNodeIdENS0_8PriorityE@Base 5.5.0
 _ZN4Qt3D12QSceneChangeC2ERNS_19QSceneChangePrivateE@Base 5.5.0
 _ZN4Qt3D12QSceneChangeC2ERNS_19QSceneChangePrivateENS_10ChangeFlagENS0_14ObservableTypeERKNS_7QNodeIdENS0_8PriorityE@Base 5.5.0
 _ZN4Qt3D12QSceneChangeD0Ev@Base 5.5.0
 _ZN4Qt3D12QSceneChangeD1Ev@Base 5.5.0
 _ZN4Qt3D12QSceneChangeD2Ev@Base 5.5.0
 _ZN4Qt3D13QAspectEngine10initializeEv@Base 5.5.0
 _ZN4Qt3D13QAspectEngine11qt_metacallEN11QMetaObject4CallEiPPv@Base 5.5.0
 _ZN4Qt3D13QAspectEngine11qt_metacastEPKc@Base 5.5.0
 _ZN4Qt3D13QAspectEngine13setRootEntityEPNS_7QEntityE@Base 5.5.0
 _ZN4Qt3D13QAspectEngine14registerAspectEPNS_15QAbstractAspectE@Base 5.5.0
 _ZN4Qt3D13QAspectEngine14registerAspectERK7QString@Base 5.5.0
 _ZN4Qt3D13QAspectEngine16setAspectFactoryERKNS_14QAspectFactoryE@Base 5.5.0
 _ZN4Qt3D13QAspectEngine16staticMetaObjectE@Base 5.5.0
 _ZN4Qt3D13QAspectEngine7setDataERK4QMapI7QString8QVariantE@Base 5.5.0
 _ZN4Qt3D13QAspectEngine8shutdownEv@Base 5.5.0
 _ZN4Qt3D13QAspectEngineC1EP7QObject@Base 5.5.0
 _ZN4Qt3D13QAspectEngineC1ERNS_20QAspectEnginePrivateEP7QObject@Base 5.5.0
 _ZN4Qt3D13QAspectEngineC2EP7QObject@Base 5.5.0
 _ZN4Qt3D13QAspectEngineC2ERNS_20QAspectEnginePrivateEP7QObject@Base 5.5.0
 _ZN4Qt3D13QAspectEngineD0Ev@Base 5.5.0
 _ZN4Qt3D13QAspectEngineD1Ev@Base 5.5.0
 _ZN4Qt3D13QAspectEngineD2Ev@Base 5.5.0
 _ZN4Qt3D14QAspectFactory10addFactoryERK7QStringPFPNS_15QAbstractAspectEP7QObjectE@Base 5.5.0
 _ZN4Qt3D14QAspectFactoryC1ERKS0_@Base 5.5.0
 _ZN4Qt3D14QAspectFactoryC1Ev@Base 5.5.0
 _ZN4Qt3D14QAspectFactoryC2ERKS0_@Base 5.5.0
 _ZN4Qt3D14QAspectFactoryC2Ev@Base 5.5.0
 _ZN4Qt3D14QAspectFactoryD1Ev@Base 5.5.0
 _ZN4Qt3D14QAspectFactoryD2Ev@Base 5.5.0
 _ZN4Qt3D14QAspectFactoryaSERKS0_@Base 5.5.0
 _ZN4Qt3D14QAspectManager10initializeEv@Base 5.5.0
 _ZN4Qt3D14QAspectManager11qt_metacallEN11QMetaObject4CallEiPPv@Base 5.5.0
 _ZN4Qt3D14QAspectManager11qt_metacastEPKc@Base 5.5.0
 _ZN4Qt3D14QAspectManager13setRootEntityEPNS_7QEntityE@Base 5.5.0
 _ZN4Qt3D14QAspectManager14registerAspectEPNS_15QAbstractAspectE@Base 5.5.0
 _ZN4Qt3D14QAspectManager16staticMetaObjectE@Base 5.5.0
 _ZN4Qt3D14QAspectManager4execEv@Base 5.5.0
 _ZN4Qt3D14QAspectManager4quitEv@Base 5.5.0
 _ZN4Qt3D14QAspectManager7setDataERK4QMapI7QString8QVariantE@Base 5.5.0
 _ZN4Qt3D14QAspectManager8shutdownEv@Base 5.5.0
 _ZN4Qt3D14QAspectManagerC1EP7QObject@Base 5.5.0
 _ZN4Qt3D14QAspectManagerC2EP7QObject@Base 5.5.0
 _ZN4Qt3D14QAspectManagerD0Ev@Base 5.5.0
 _ZN4Qt3D14QAspectManagerD1Ev@Base 5.5.0
 _ZN4Qt3D14QAspectManagerD2Ev@Base 5.5.0
 _ZN4Qt3D14QCameraPrivateC1Ev@Base 5.5.0
 _ZN4Qt3D14QCameraPrivateC2Ev@Base 5.5.0
 _ZN4Qt3D14QChangeArbiter10initializeEPNS_25QAbstractAspectJobManagerE@Base 5.5.0
 _ZN4Qt3D14QChangeArbiter10setPostmanEPNS_18QObserverInterfaceE@Base 5.5.0
 _ZN4Qt3D14QChangeArbiter11qt_metacallEN11QMetaObject4CallEiPPv@Base 5.5.0
 _ZN4Qt3D14QChangeArbiter11qt_metacastEPKc@Base 5.5.0
 _ZN4Qt3D14QChangeArbiter11syncChangesEv@Base 5.5.0
 _ZN4Qt3D14QChangeArbiter14tlsChangeQueueEv@Base 5.5.0
 _ZN4Qt3D14QChangeArbiter16registerObserverEPNS_18QObserverInterfaceERKNS_7QNodeIdE6QFlagsINS_10ChangeFlagEE@Base 5.5.0
 _ZN4Qt3D14QChangeArbiter16sceneChangeEventERK14QSharedPointerINS_12QSceneChangeEE@Base 5.5.0
 _ZN4Qt3D14QChangeArbiter16staticMetaObjectE@Base 5.5.0
 _ZN4Qt3D14QChangeArbiter17appendChangeQueueEPSt6vectorI14QSharedPointerINS_12QSceneChangeEESaIS4_EE@Base 5.5.0
 _ZN4Qt3D14QChangeArbiter17removeChangeQueueEPSt6vectorI14QSharedPointerINS_12QSceneChangeEESaIS4_EE@Base 5.5.0
 _ZN4Qt3D14QChangeArbiter18unregisterObserverEPNS_18QObserverInterfaceERKNS_7QNodeIdE@Base 5.5.0
 _ZN4Qt3D14QChangeArbiter21registerSceneObserverEPNS_23QSceneObserverInterfaceE@Base 5.5.0
 _ZN4Qt3D14QChangeArbiter22distributeQueueChangesEPSt6vectorI14QSharedPointerINS_12QSceneChangeEESaIS4_EE@Base 5.5.0
 _ZN4Qt3D14QChangeArbiter23unregisterSceneObserverEPNS_23QSceneObserverInterfaceE@Base 5.5.0
 _ZN4Qt3D14QChangeArbiter24appendLockingChangeQueueEPSt6vectorI14QSharedPointerINS_12QSceneChangeEESaIS4_EE@Base 5.5.0
 _ZN4Qt3D14QChangeArbiter24removeLockingChangeQueueEPSt6vectorI14QSharedPointerINS_12QSceneChangeEESaIS4_EE@Base 5.5.0
 _ZN4Qt3D14QChangeArbiter24sceneChangeEventWithLockERK14QSharedPointerINS_12QSceneChangeEE@Base 5.5.0
 _ZN4Qt3D14QChangeArbiter28createThreadLocalChangeQueueEPv@Base 5.5.0
 _ZN4Qt3D14QChangeArbiter29destroyThreadLocalChangeQueueEPv@Base 5.5.0
 _ZN4Qt3D14QChangeArbiter37createUnmanagedThreadLocalChangeQueueEPv@Base 5.5.0
 _ZN4Qt3D14QChangeArbiter38destroyUnmanagedThreadLocalChangeQueueEPv@Base 5.5.0
 _ZN4Qt3D14QChangeArbiter8setSceneEPNS_15QSceneInterfaceE@Base 5.5.0
 _ZN4Qt3D14QChangeArbiterC1EP7QObject@Base 5.5.0
 _ZN4Qt3D14QChangeArbiterC2EP7QObject@Base 5.5.0
 _ZN4Qt3D14QChangeArbiterD0Ev@Base 5.5.0
 _ZN4Qt3D14QChangeArbiterD1Ev@Base 5.5.0
 _ZN4Qt3D14QChangeArbiterD2Ev@Base 5.5.0
 _ZN4Qt3D14QEntityPrivateC1Ev@Base 5.5.0
 _ZN4Qt3D14QEntityPrivateC2Ev@Base 5.5.0
 _ZN4Qt3D15QAbstractAspect11qt_metacallEN11QMetaObject4CallEiPPv@Base 5.5.0
 _ZN4Qt3D15QAbstractAspect11qt_metacastEPKc@Base 5.5.0
 _ZN4Qt3D15QAbstractAspect14registerAspectEPNS_7QEntityE@Base 5.5.0
 _ZN4Qt3D15QAbstractAspect16staticMetaObjectE@Base 5.5.0
 _ZN4Qt3D15QAbstractAspect19registerBackendTypeERK11QMetaObjectRK14QSharedPointerINS_19QBackendNodeFunctorEE@Base 5.5.0
 _ZN4Qt3D15QAbstractAspectC1ENS0_10AspectTypeEP7QObject@Base 5.5.0
 _ZN4Qt3D15QAbstractAspectC1ERNS_22QAbstractAspectPrivateEP7QObject@Base 5.5.0
 _ZN4Qt3D15QAbstractAspectC2ENS0_10AspectTypeEP7QObject@Base 5.5.0
 _ZN4Qt3D15QAbstractAspectC2ERNS_22QAbstractAspectPrivateEP7QObject@Base 5.5.0
 _ZN4Qt3D15QAbstractBuffer7setDataERK10QByteArray@Base 5.5.0
 _ZN4Qt3D15QAbstractBufferC1ERNS_22QAbstractBufferPrivateE@Base 5.5.0
 _ZN4Qt3D15QAbstractBufferC1Ev@Base 5.5.0
 _ZN4Qt3D15QAbstractBufferC2ERNS_22QAbstractBufferPrivateE@Base 5.5.0
 _ZN4Qt3D15QAbstractBufferC2Ev@Base 5.5.0
 _ZN4Qt3D15QAbstractBufferD0Ev@Base 5.5.0
 _ZN4Qt3D15QAbstractBufferD1Ev@Base 5.5.0
 _ZN4Qt3D15QAbstractBufferD2Ev@Base 5.5.0
 _ZN4Qt3D15QFrameAllocator17allocateRawMemoryEm@Base 5.5.0
 _ZN4Qt3D15QFrameAllocator19deallocateRawMemoryEPvm@Base 5.5.0
 _ZN4Qt3D15QFrameAllocator4trimEv@Base 5.5.0
 _ZN4Qt3D15QFrameAllocator5clearEv@Base 5.5.0
 _ZN4Qt3D15QFrameAllocatorC1Ejjj@Base 5.5.0
 _ZN4Qt3D15QFrameAllocatorC2Ejjj@Base 5.5.0
 _ZN4Qt3D15QFrameAllocatorD1Ev@Base 5.5.0
 _ZN4Qt3D15QFrameAllocatorD2Ev@Base 5.5.0
 _ZN4Qt3D15QScaleTransform10setScale3DERK9QVector3D@Base 5.5.0
 _ZN4Qt3D15QScaleTransform11qt_metacallEN11QMetaObject4CallEiPPv@Base 5.5.0
 _ZN4Qt3D15QScaleTransform11qt_metacastEPKc@Base 5.5.0
 _ZN4Qt3D15QScaleTransform12scaleChangedEv@Base 5.5.0
 _ZN4Qt3D15QScaleTransform14scale3DChangedEv@Base 5.5.0
 _ZN4Qt3D15QScaleTransform16staticMetaObjectE@Base 5.5.0
 _ZN4Qt3D15QScaleTransform8setScaleEf@Base 5.5.0
 _ZN4Qt3D15QScaleTransformC1EP7QObject@Base 5.5.0
 _ZN4Qt3D15QScaleTransformC1ERNS_22QScaleTransformPrivateEP7QObject@Base 5.5.0
 _ZN4Qt3D15QScaleTransformC2EP7QObject@Base 5.5.0
 _ZN4Qt3D15QScaleTransformC2ERNS_22QScaleTransformPrivateEP7QObject@Base 5.5.0
 _ZN4Qt3D15QServiceLocator17openGLInformationEv@Base 5.5.0
 _ZN4Qt3D15QServiceLocator17systemInformationEv@Base 5.5.0
 _ZN4Qt3D15QServiceLocator19_q_getServiceHelperEi@Base 5.5.0
 _ZN4Qt3D15QServiceLocator23registerServiceProviderEiPNS_24QAbstractServiceProviderE@Base 5.5.0
 _ZN4Qt3D15QServiceLocator25unregisterServiceProviderEi@Base 5.5.0
 _ZN4Qt3D15QServiceLocatorC1Ev@Base 5.5.0
 _ZN4Qt3D15QServiceLocatorC2Ev@Base 5.5.0
 _ZN4Qt3D15QServiceLocatorD1Ev@Base 5.5.0
 _ZN4Qt3D15QServiceLocatorD2Ev@Base 5.5.0
 _ZN4Qt3D16QLookAtTransform11qt_metacallEN11QMetaObject4CallEiPPv@Base 5.5.0
 _ZN4Qt3D16QLookAtTransform11qt_metacastEPKc@Base 5.5.0
 _ZN4Qt3D16QLookAtTransform11setPositionERK9QVector3D@Base 5.5.0
 _ZN4Qt3D16QLookAtTransform11setUpVectorERK9QVector3D@Base 5.5.0
 _ZN4Qt3D16QLookAtTransform13setViewCenterERK9QVector3D@Base 5.5.0
 _ZN4Qt3D16QLookAtTransform13setViewVectorERK9QVector3D@Base 5.5.0
 _ZN4Qt3D16QLookAtTransform15positionChangedEv@Base 5.5.0
 _ZN4Qt3D16QLookAtTransform15upVectorChangedEv@Base 5.5.0
 _ZN4Qt3D16QLookAtTransform16staticMetaObjectE@Base 5.5.0
 _ZN4Qt3D16QLookAtTransform17viewCenterChangedEv@Base 5.5.0
 _ZN4Qt3D16QLookAtTransform17viewVectorChangedEv@Base 5.5.0
 _ZN4Qt3D16QLookAtTransformC1EP7QObject@Base 5.5.0
 _ZN4Qt3D16QLookAtTransformC1ERNS_23QLookAtTransformPrivateEP7QObject@Base 5.5.0
 _ZN4Qt3D16QLookAtTransformC2EP7QObject@Base 5.5.0
 _ZN4Qt3D16QLookAtTransformC2ERNS_23QLookAtTransformPrivateEP7QObject@Base 5.5.0
 _ZN4Qt3D16QMatrixTransform11qt_metacallEN11QMetaObject4CallEiPPv@Base 5.5.0
 _ZN4Qt3D16QMatrixTransform11qt_metacastEPKc@Base 5.5.0
 _ZN4Qt3D16QMatrixTransform13matrixChangedEv@Base 5.5.0
 _ZN4Qt3D16QMatrixTransform16staticMetaObjectE@Base 5.5.0
 _ZN4Qt3D16QMatrixTransform9setMatrixERK10QMatrix4x4@Base 5.5.0
 _ZN4Qt3D16QMatrixTransformC1EP7QObject@Base 5.5.0
 _ZN4Qt3D16QMatrixTransformC1ERK10QMatrix4x4P7QObject@Base 5.5.0
 _ZN4Qt3D16QMatrixTransformC1ERNS_23QMatrixTransformPrivateEP7QObject@Base 5.5.0
 _ZN4Qt3D16QMatrixTransformC2EP7QObject@Base 5.5.0
 _ZN4Qt3D16QMatrixTransformC2ERK10QMatrix4x4P7QObject@Base 5.5.0
 _ZN4Qt3D16QMatrixTransformC2ERNS_23QMatrixTransformPrivateEP7QObject@Base 5.5.0
 _ZN4Qt3D16QRotateTransform11axisChangedEv@Base 5.5.0
 _ZN4Qt3D16QRotateTransform11qt_metacallEN11QMetaObject4CallEiPPv@Base 5.5.0
 _ZN4Qt3D16QRotateTransform11qt_metacastEPKc@Base 5.5.0
 _ZN4Qt3D16QRotateTransform11setAngleDegEf@Base 5.5.0
 _ZN4Qt3D16QRotateTransform11setAngleRadEf@Base 5.5.0
 _ZN4Qt3D16QRotateTransform12angleChangedEv@Base 5.5.0
 _ZN4Qt3D16QRotateTransform16staticMetaObjectE@Base 5.5.0
 _ZN4Qt3D16QRotateTransform7setAxisERK9QVector3D@Base 5.5.0
 _ZN4Qt3D16QRotateTransformC1EP7QObject@Base 5.5.0
 _ZN4Qt3D16QRotateTransformC1ERNS_23QRotateTransformPrivateEP7QObject@Base 5.5.0
 _ZN4Qt3D16QRotateTransformC2EP7QObject@Base 5.5.0
 _ZN4Qt3D16QRotateTransformC2ERNS_23QRotateTransformPrivateEP7QObject@Base 5.5.0
 _ZN4Qt3D17QAspectJobManager10initializeEv@Base 5.5.0
 _ZN4Qt3D17QAspectJobManager11enqueueJobsERK7QVectorI14QSharedPointerINS_10QAspectJobEEE@Base 5.5.0
 _ZN4Qt3D17QAspectJobManager11qt_metacallEN11QMetaObject4CallEiPPv@Base 5.5.0
 _ZN4Qt3D17QAspectJobManager11qt_metacastEPKc@Base 5.5.0
 _ZN4Qt3D17QAspectJobManager14waitForAllJobsEv@Base 5.5.0
 _ZN4Qt3D17QAspectJobManager16staticMetaObjectE@Base 5.5.0
 _ZN4Qt3D17QAspectJobManager24waitForPerThreadFunctionEPFvPvES1_@Base 5.5.0
 _ZN4Qt3D17QAspectJobManagerC1EP7QObject@Base 5.5.0
 _ZN4Qt3D17QAspectJobManagerC2EP7QObject@Base 5.5.0
 _ZN4Qt3D17QAspectJobManagerD0Ev@Base 5.5.0
 _ZN4Qt3D17QAspectJobManagerD1Ev@Base 5.5.0
 _ZN4Qt3D17QAspectJobManagerD2Ev@Base 5.5.0
 _ZN4Qt3D17QComponentPrivate12removeEntityEPNS_7QEntityE@Base 5.5.0
 _ZN4Qt3D17QComponentPrivate9addEntityEPNS_7QEntityE@Base 5.5.0
 _ZN4Qt3D17QComponentPrivateC1Ev@Base 5.5.0
 _ZN4Qt3D17QComponentPrivateC2Ev@Base 5.5.0
 _ZN4Qt3D18QAbstractAttribute10byteOffsetEv@Base 5.5.0
 _ZN4Qt3D18QAbstractAttributeC1E14QSharedPointerINS_15QAbstractBufferEEijjj@Base 5.5.0
 _ZN4Qt3D18QAbstractAttributeC1ERNS_25QAbstractAttributePrivateE14QSharedPointerINS_15QAbstractBufferEEijjj@Base 5.5.0
 _ZN4Qt3D18QAbstractAttributeC2E14QSharedPointerINS_15QAbstractBufferEEijjj@Base 5.5.0
 _ZN4Qt3D18QAbstractAttributeC2ERNS_25QAbstractAttributePrivateE14QSharedPointerINS_15QAbstractBufferEEijjj@Base 5.5.0
 _ZN4Qt3D18QAbstractAttributeD0Ev@Base 5.5.0
 _ZN4Qt3D18QAbstractAttributeD1Ev@Base 5.5.0
 _ZN4Qt3D18QAbstractAttributeD2Ev@Base 5.5.0
 _ZN4Qt3D18QAbstractTransform11qt_metacallEN11QMetaObject4CallEiPPv@Base 5.5.0
 _ZN4Qt3D18QAbstractTransform11qt_metacastEPKc@Base 5.5.0
 _ZN4Qt3D18QAbstractTransform16staticMetaObjectE@Base 5.5.0
 _ZN4Qt3D18QAbstractTransform22transformMatrixChangedEv@Base 5.5.0
 _ZN4Qt3D18QAbstractTransformC1EP7QObject@Base 5.5.0
 _ZN4Qt3D18QAbstractTransformC1ERNS_25QAbstractTransformPrivateEP7QObject@Base 5.5.0
 _ZN4Qt3D18QAbstractTransformC2EP7QObject@Base 5.5.0
 _ZN4Qt3D18QAbstractTransformC2ERNS_25QAbstractTransformPrivateEP7QObject@Base 5.5.0
 _ZN4Qt3D18QCameraLensPrivateC1Ev@Base 5.5.0
 _ZN4Qt3D18QCameraLensPrivateC2Ev@Base 5.5.0
 _ZN4Qt3D18QObserverInterfaceD0Ev@Base 5.5.0
 _ZN4Qt3D18QObserverInterfaceD1Ev@Base 5.5.0
 _ZN4Qt3D18QObserverInterfaceD2Ev@Base 5.5.0
 _ZN4Qt3D19QBackendNodeFactoryD0Ev@Base 5.5.0
 _ZN4Qt3D19QBackendNodeFactoryD1Ev@Base 5.5.0
 _ZN4Qt3D19QBackendNodeFactoryD2Ev@Base 5.5.0
 _ZN4Qt3D19QBackendNodePrivate10setArbiterEPNS_26QLockableObserverInterfaceE@Base 5.5.0
 _ZN4Qt3D19QBackendNodePrivate15notifyObserversERK14QSharedPointerINS_12QSceneChangeEE@Base 5.5.0
 _ZN4Qt3D19QBackendNodePrivate16sceneChangeEventERK14QSharedPointerINS_12QSceneChangeEE@Base 5.5.0
 _ZN4Qt3D19QBackendNodePrivate3getEPNS_12QBackendNodeE@Base 5.5.0
 _ZN4Qt3D19QBackendNodePrivateC1ENS_12QBackendNode4ModeE@Base 5.5.0
 _ZN4Qt3D19QBackendNodePrivateC2ENS_12QBackendNode4ModeE@Base 5.5.0
 _ZN4Qt3D19QTranslateTransform11qt_metacallEN11QMetaObject4CallEiPPv@Base 5.5.0
 _ZN4Qt3D19QTranslateTransform11qt_metacastEPKc@Base 5.5.0
 _ZN4Qt3D19QTranslateTransform14setTranslationERK9QVector3D@Base 5.5.0
 _ZN4Qt3D19QTranslateTransform16staticMetaObjectE@Base 5.5.0
 _ZN4Qt3D19QTranslateTransform16translateChangedEv@Base 5.5.0
 _ZN4Qt3D19QTranslateTransform5setDxEf@Base 5.5.0
 _ZN4Qt3D19QTranslateTransform5setDyEf@Base 5.5.0
 _ZN4Qt3D19QTranslateTransform5setDzEf@Base 5.5.0
 _ZN4Qt3D19QTranslateTransformC1EP7QObject@Base 5.5.0
 _ZN4Qt3D19QTranslateTransformC1ERNS_26QTranslateTransformPrivateEP7QObject@Base 5.5.0
 _ZN4Qt3D19QTranslateTransformC2EP7QObject@Base 5.5.0
 _ZN4Qt3D19QTranslateTransformC2ERNS_26QTranslateTransformPrivateEP7QObject@Base 5.5.0
 _ZN4Qt3D20QObservableInterfaceD0Ev@Base 5.5.0
 _ZN4Qt3D20QObservableInterfaceD1Ev@Base 5.5.0
 _ZN4Qt3D20QObservableInterfaceD2Ev@Base 5.5.0
 _ZN4Qt3D20QScenePropertyChange15setPropertyNameEPKc@Base 5.5.0
 _ZN4Qt3D20QScenePropertyChange8setValueERK8QVariant@Base 5.5.0
 _ZN4Qt3D20QScenePropertyChangeC1ENS_10ChangeFlagENS_12QSceneChange14ObservableTypeERKNS_7QNodeIdENS2_8PriorityE@Base 5.5.0
 _ZN4Qt3D20QScenePropertyChangeC1ERNS_27QScenePropertyChangePrivateE@Base 5.5.0
 _ZN4Qt3D20QScenePropertyChangeC1ERNS_27QScenePropertyChangePrivateENS_10ChangeFlagENS_12QSceneChange14ObservableTypeERKNS_7QNodeIdENS4_8PriorityE@Base 5.5.0
 _ZN4Qt3D20QScenePropertyChangeC2ENS_10ChangeFlagENS_12QSceneChange14ObservableTypeERKNS_7QNodeIdENS2_8PriorityE@Base 5.5.0
 _ZN4Qt3D20QScenePropertyChangeC2ERNS_27QScenePropertyChangePrivateE@Base 5.5.0
 _ZN4Qt3D20QScenePropertyChangeC2ERNS_27QScenePropertyChangePrivateENS_10ChangeFlagENS_12QSceneChange14ObservableTypeERKNS_7QNodeIdENS4_8PriorityE@Base 5.5.0
 _ZN4Qt3D20QScenePropertyChangeD0Ev@Base 5.5.0
 _ZN4Qt3D20QScenePropertyChangeD1Ev@Base 5.5.0
 _ZN4Qt3D20QScenePropertyChangeD2Ev@Base 5.5.0
 _ZN4Qt3D20QScenePropertyChangedlEPvm@Base 5.5.0
 _ZN4Qt3D20QScenePropertyChangenwEm@Base 5.5.0
 _ZN4Qt3D22QAbstractAspectPrivate3getEPNS_15QAbstractAspectE@Base 5.5.0
 _ZN4Qt3D22QAbstractAspectPrivateC1Ev@Base 5.5.0
 _ZN4Qt3D22QAbstractAspectPrivateC2Ev@Base 5.5.0
 _ZN4Qt3D22QAbstractBufferPrivateC1Ev@Base 5.5.0
 _ZN4Qt3D22QAbstractBufferPrivateC2Ev@Base 5.5.0
 _ZN4Qt3D23QAxisAlignedBoundingBox6updateERK7QVectorI9QVector3DE@Base 5.5.0
 _ZN4Qt3D23QSceneObserverInterfaceD0Ev@Base 5.5.0
 _ZN4Qt3D23QSceneObserverInterfaceD1Ev@Base 5.5.0
 _ZN4Qt3D23QSceneObserverInterfaceD2Ev@Base 5.5.0
 _ZN4Qt3D24QAbstractServiceProviderC1ERNS_31QAbstractServiceProviderPrivateE@Base 5.5.0
 _ZN4Qt3D24QAbstractServiceProviderC1EiRK7QString@Base 5.5.0
 _ZN4Qt3D24QAbstractServiceProviderC2ERNS_31QAbstractServiceProviderPrivateE@Base 5.5.0
 _ZN4Qt3D24QAbstractServiceProviderC2EiRK7QString@Base 5.5.0
 _ZN4Qt3D24QAbstractServiceProviderD0Ev@Base 5.5.0
 _ZN4Qt3D24QAbstractServiceProviderD1Ev@Base 5.5.0
 _ZN4Qt3D24QAbstractServiceProviderD2Ev@Base 5.5.0
 _ZN4Qt3D25QAbstractAttributePrivateC1Ev@Base 5.5.0
 _ZN4Qt3D25QAbstractAttributePrivateC2Ev@Base 5.5.0
 _ZN4Qt3D25QOpenGLInformationServiceC1ERK7QString@Base 5.5.0
 _ZN4Qt3D25QOpenGLInformationServiceC1ERNS_32QOpenGLInformationServicePrivateE@Base 5.5.0
 _ZN4Qt3D25QOpenGLInformationServiceC2ERK7QString@Base 5.5.0
 _ZN4Qt3D25QOpenGLInformationServiceC2ERNS_32QOpenGLInformationServicePrivateE@Base 5.5.0
 _ZN4Qt3D25QSystemInformationServiceC1ERK7QString@Base 5.5.0
 _ZN4Qt3D25QSystemInformationServiceC1ERNS_32QSystemInformationServicePrivateE@Base 5.5.0
 _ZN4Qt3D25QSystemInformationServiceC2ERK7QString@Base 5.5.0
 _ZN4Qt3D25QSystemInformationServiceC2ERNS_32QSystemInformationServicePrivateE@Base 5.5.0
 _ZN4Qt3D26QLockableObserverInterfaceD0Ev@Base 5.5.0
 _ZN4Qt3D26QLockableObserverInterfaceD1Ev@Base 5.5.0
 _ZN4Qt3D26QLockableObserverInterfaceD2Ev@Base 5.5.0
 _ZN4Qt3D27QBackendScenePropertyChange13setTargetNodeERKNS_7QNodeIdE@Base 5.5.0
 _ZN4Qt3D27QBackendScenePropertyChangeC1ENS_10ChangeFlagERKNS_7QNodeIdENS_12QSceneChange8PriorityE@Base 5.5.0
 _ZN4Qt3D27QBackendScenePropertyChangeC1ERNS_34QBackendScenePropertyChangePrivateE@Base 5.5.0
 _ZN4Qt3D27QBackendScenePropertyChangeC1ERNS_34QBackendScenePropertyChangePrivateENS_10ChangeFlagERKNS_7QNodeIdENS_12QSceneChange8PriorityE@Base 5.5.0
 _ZN4Qt3D27QBackendScenePropertyChangeC2ENS_10ChangeFlagERKNS_7QNodeIdENS_12QSceneChange8PriorityE@Base 5.5.0
 _ZN4Qt3D27QBackendScenePropertyChangeC2ERNS_34QBackendScenePropertyChangePrivateE@Base 5.5.0
 _ZN4Qt3D27QBackendScenePropertyChangeC2ERNS_34QBackendScenePropertyChangePrivateENS_10ChangeFlagERKNS_7QNodeIdENS_12QSceneChange8PriorityE@Base 5.5.0
 _ZN4Qt3D27QBackendScenePropertyChangeD0Ev@Base 5.5.0
 _ZN4Qt3D27QBackendScenePropertyChangeD1Ev@Base 5.5.0
 _ZN4Qt3D27QBackendScenePropertyChangeD2Ev@Base 5.5.0
 _ZN4Qt3D44qt3d_QAspectFactoryPrivate_addDefaultFactoryERK7QStringPFPNS_15QAbstractAspectEP7QObjectE@Base 5.5.0
 _ZN4Qt3D5QNode11qt_metacallEN11QMetaObject4CallEiPPv@Base 5.5.0
 _ZN4Qt3D5QNode11qt_metacastEPKc@Base 5.5.0
 _ZN4Qt3D5QNode16sceneChangeEventERK14QSharedPointerINS_12QSceneChangeEE@Base 5.5.0
 _ZN4Qt3D5QNode16staticMetaObjectE@Base 5.5.0
 _ZN4Qt3D5QNode18blockNotificationsEb@Base 5.5.0
 _ZN4Qt3D5QNode4copyEPKS0_@Base 5.5.0
 _ZN4Qt3D5QNode5cloneEPS0_@Base 5.5.0
 _ZN4Qt3D5QNode5eventEP6QEvent@Base 5.5.0
 _ZN4Qt3D5QNodeC1EPS0_@Base 5.5.0
 _ZN4Qt3D5QNodeC1ERNS_12QNodePrivateEPS0_@Base 5.5.0
 _ZN4Qt3D5QNodeC2EPS0_@Base 5.5.0
 _ZN4Qt3D5QNodeC2ERNS_12QNodePrivateEPS0_@Base 5.5.0
 _ZN4Qt3D5QNodeD0Ev@Base 5.5.0
 _ZN4Qt3D5QNodeD1Ev@Base 5.5.0
 _ZN4Qt3D5QNodeD2Ev@Base 5.5.0
 _ZN4Qt3D6QRay3D12setDirectionERK9QVector3D@Base 5.5.0
 _ZN4Qt3D6QRay3D9setOriginERK9QVector3D@Base 5.5.0
 _ZN4Qt3D6QRay3D9transformERK10QMatrix4x4@Base 5.5.0
 _ZN4Qt3D6QRay3DC1ERK9QVector3DS3_@Base 5.5.0
 _ZN4Qt3D6QRay3DC1Ev@Base 5.5.0
 _ZN4Qt3D6QRay3DC2ERK9QVector3DS3_@Base 5.5.0
 _ZN4Qt3D6QRay3DC2Ev@Base 5.5.0
 _ZN4Qt3D6QRay3DD0Ev@Base 5.5.0
 _ZN4Qt3D6QRay3DD1Ev@Base 5.5.0
 _ZN4Qt3D6QRay3DD2Ev@Base 5.5.0
 _ZN4Qt3D6QScene10setArbiterEPNS_26QLockableObserverInterfaceE@Base 5.5.0
 _ZN4Qt3D6QScene13addObservableEPNS_20QObservableInterfaceERKNS_7QNodeIdE@Base 5.5.0
 _ZN4Qt3D6QScene13addObservableEPNS_5QNodeE@Base 5.5.0
 _ZN4Qt3D6QScene16removeObservableEPNS_20QObservableInterfaceERKNS_7QNodeIdE@Base 5.5.0
 _ZN4Qt3D6QScene16removeObservableEPNS_5QNodeE@Base 5.5.0
 _ZN4Qt3D6QScene21addEntityForComponentERKNS_7QNodeIdES3_@Base 5.5.0
 _ZN4Qt3D6QScene24removeEntityForComponentERKNS_7QNodeIdES3_@Base 5.5.0
 _ZN4Qt3D6QSceneC1EPNS_13QAspectEngineE@Base 5.5.0
 _ZN4Qt3D6QSceneC2EPNS_13QAspectEngineE@Base 5.5.0
 _ZN4Qt3D6QSceneD0Ev@Base 5.5.0
 _ZN4Qt3D6QSceneD1Ev@Base 5.5.0
 _ZN4Qt3D6QSceneD2Ev@Base 5.5.0
 _ZN4Qt3D7QCamera10topChangedEv@Base 5.5.0
 _ZN4Qt3D7QCamera11leftChangedEv@Base 5.5.0
 _ZN4Qt3D7QCamera11qt_metacallEN11QMetaObject4CallEiPPv@Base 5.5.0
 _ZN4Qt3D7QCamera11qt_metacastEPKc@Base 5.5.0
 _ZN4Qt3D7QCamera11setFarPlaneEf@Base 5.5.0
 _ZN4Qt3D7QCamera11setPositionERK9QVector3D@Base 5.5.0
 _ZN4Qt3D7QCamera11setUpVectorERK9QVector3D@Base 5.5.0
 _ZN4Qt3D7QCamera12rightChangedEv@Base 5.5.0
 _ZN4Qt3D7QCamera12setNearPlaneEf@Base 5.5.0
 _ZN4Qt3D7QCamera13bottomChangedEv@Base 5.5.0
 _ZN4Qt3D7QCamera13setViewCenterERK9QVector3D@Base 5.5.0
 _ZN4Qt3D7QCamera14setAspectRatioEf@Base 5.5.0
 _ZN4Qt3D7QCamera14setFieldOfViewEf@Base 5.5.0
 _ZN4Qt3D7QCamera14translateWorldERK9QVector3DNS0_23CameraTranslationOptionE@Base 5.5.0
 _ZN4Qt3D7QCamera15farPlaneChangedEv@Base 5.5.0
 _ZN4Qt3D7QCamera15positionChangedEv@Base 5.5.0
 _ZN4Qt3D7QCamera15upVectorChangedEv@Base 5.5.0
 _ZN4Qt3D7QCamera16nearPlaneChangedEv@Base 5.5.0
 _ZN4Qt3D7QCamera16staticMetaObjectE@Base 5.5.0
 _ZN4Qt3D7QCamera17setProjectionTypeENS_11QCameraLens14ProjectionTypeE@Base 5.5.0
 _ZN4Qt3D7QCamera17viewCenterChangedEv@Base 5.5.0
 _ZN4Qt3D7QCamera18aspectRatioChangedEv@Base 5.5.0
 _ZN4Qt3D7QCamera18fieldOfViewChangedEv@Base 5.5.0
 _ZN4Qt3D7QCamera18panAboutViewCenterERKf@Base 5.5.0
 _ZN4Qt3D7QCamera19rollAboutViewCenterERKf@Base 5.5.0
 _ZN4Qt3D7QCamera19tiltAboutViewCenterERKf@Base 5.5.0
 _ZN4Qt3D7QCamera21projectionTypeChangedEv@Base 5.5.0
 _ZN4Qt3D7QCamera21rotateAboutViewCenterERK11QQuaternion@Base 5.5.0
 _ZN4Qt3D7QCamera23projectionMatrixChangedEv@Base 5.5.0
 _ZN4Qt3D7QCamera3panERKf@Base 5.5.0
 _ZN4Qt3D7QCamera4rollERKf@Base 5.5.0
 _ZN4Qt3D7QCamera4tiltERKf@Base 5.5.0
 _ZN4Qt3D7QCamera6rotateERK11QQuaternion@Base 5.5.0
 _ZN4Qt3D7QCamera6setTopEf@Base 5.5.0
 _ZN4Qt3D7QCamera7setLeftEf@Base 5.5.0
 _ZN4Qt3D7QCamera8setRightEf@Base 5.5.0
 _ZN4Qt3D7QCamera9setBottomEf@Base 5.5.0
 _ZN4Qt3D7QCamera9translateERK9QVector3DNS0_23CameraTranslationOptionE@Base 5.5.0
 _ZN4Qt3D7QCameraC1EPNS_5QNodeE@Base 5.5.0
 _ZN4Qt3D7QCameraC1ERNS_14QCameraPrivateEPNS_5QNodeE@Base 5.5.0
 _ZN4Qt3D7QCameraC2EPNS_5QNodeE@Base 5.5.0
 _ZN4Qt3D7QCameraC2ERNS_14QCameraPrivateEPNS_5QNodeE@Base 5.5.0
 _ZN4Qt3D7QEntity11qt_metacallEN11QMetaObject4CallEiPPv@Base 5.5.0
 _ZN4Qt3D7QEntity11qt_metacastEPKc@Base 5.5.0
 _ZN4Qt3D7QEntity12addComponentEPNS_10QComponentE@Base 5.5.0
 _ZN4Qt3D7QEntity15removeComponentEPNS_10QComponentE@Base 5.5.0
 _ZN4Qt3D7QEntity16staticMetaObjectE@Base 5.5.0
 _ZN4Qt3D7QEntity19removeAllComponentsEv@Base 5.5.0
 _ZN4Qt3D7QEntity4copyEPKNS_5QNodeE@Base 5.5.0
 _ZN4Qt3D7QEntityC1EPNS_5QNodeE@Base 5.5.0
 _ZN4Qt3D7QEntityC1ERNS_14QEntityPrivateEPNS_5QNodeE@Base 5.5.0
 _ZN4Qt3D7QEntityC2EPNS_5QNodeE@Base 5.5.0
 _ZN4Qt3D7QEntityC2ERNS_14QEntityPrivateEPNS_5QNodeE@Base 5.5.0
 _ZN4Qt3D7QEntityD0Ev@Base 5.5.0
 _ZN4Qt3D7QEntityD1Ev@Base 5.5.0
 _ZN4Qt3D7QEntityD2Ev@Base 5.5.0
 _ZN4Qt3D7QNodeId8createIdEv@Base 5.5.0
 _ZN4Qt3DlsE6QDebugRKNS_23QAxisAlignedBoundingBoxE@Base 5.5.0
 _ZN4Qt3DlsE6QDebugRKNS_6QRay3DE@Base 5.5.0
 _ZN4Qt3DlsE6QDebugRKNS_7QNodeIdE@Base 5.5.0
 _ZN4Qt3DlsER11QDataStreamRKNS_6QRay3DE@Base 5.5.0
 _ZN4Qt3DrsER11QDataStreamRNS_6QRay3DE@Base 5.5.0
 _ZNK4Qt3D10QAspectJob12dependenciesEv@Base 5.5.0
 _ZNK4Qt3D10QComponent10metaObjectEv@Base 5.5.0
 _ZNK4Qt3D10QComponent8entitiesEv@Base 5.5.0
 _ZNK4Qt3D10QComponent9isEnabledEv@Base 5.5.0
 _ZNK4Qt3D10QComponent9shareableEv@Base 5.5.0
 _ZNK4Qt3D10QTransform10metaObjectEv@Base 5.5.0
 _ZNK4Qt3D10QTransform10transformsEv@Base 5.5.0
 _ZNK4Qt3D10QTransform6matrixEv@Base 5.5.0
 _ZNK4Qt3D11QCameraLens10metaObjectEv@Base 5.5.0
 _ZNK4Qt3D11QCameraLens11aspectRatioEv@Base 5.5.0
 _ZNK4Qt3D11QCameraLens11fieldOfViewEv@Base 5.5.0
 _ZNK4Qt3D11QCameraLens14projectionTypeEv@Base 5.5.0
 _ZNK4Qt3D11QCameraLens16projectionMatrixEv@Base 5.5.0
 _ZNK4Qt3D11QCameraLens3topEv@Base 5.5.0
 _ZNK4Qt3D11QCameraLens4leftEv@Base 5.5.0
 _ZNK4Qt3D11QCameraLens5rightEv@Base 5.5.0
 _ZNK4Qt3D11QCameraLens6bottomEv@Base 5.5.0
 _ZNK4Qt3D11QCameraLens8farPlaneEv@Base 5.5.0
 _ZNK4Qt3D11QCameraLens9nearPlaneEv@Base 5.5.0
 _ZNK4Qt3D12QBackendNode17createBackendNodeEPNS_5QNodeE@Base 5.5.0
 _ZNK4Qt3D12QBackendNode4modeEv@Base 5.5.0
 _ZNK4Qt3D12QBackendNode8peerUuidEv@Base 5.5.0
 _ZNK4Qt3D12QNodePrivate5sceneEv@Base 5.5.0
 _ZNK4Qt3D12QNodeVisitor11currentNodeEv@Base 5.5.0
 _ZNK4Qt3D12QNodeVisitor4pathEv@Base 5.5.0
 _ZNK4Qt3D12QNodeVisitor8rootNodeEv@Base 5.5.0
 _ZNK4Qt3D12QSceneChange14observableTypeEv@Base 5.5.0
 _ZNK4Qt3D12QSceneChange4typeEv@Base 5.5.0
 _ZNK4Qt3D12QSceneChange8priorityEv@Base 5.5.0
 _ZNK4Qt3D12QSceneChange9subjectIdEv@Base 5.5.0
 _ZNK4Qt3D12QSceneChange9timestampEv@Base 5.5.0
 _ZNK4Qt3D13QAspectEngine10metaObjectEv@Base 5.5.0
 _ZNK4Qt3D13QAspectEngine10rootEntityEv@Base 5.5.0
 _ZNK4Qt3D13QAspectEngine12initNodeTreeEPNS_5QNodeE@Base 5.5.0
 _ZNK4Qt3D13QAspectEngine13aspectFactoryEv@Base 5.5.0
 _ZNK4Qt3D13QAspectEngine7aspectsEv@Base 5.5.0
 _ZNK4Qt3D14QAspectFactory12createAspectERK7QStringP7QObject@Base 5.5.0
 _ZNK4Qt3D14QAspectFactory18availableFactoriesEv@Base 5.5.0
 _ZNK4Qt3D14QAspectManager10jobManagerEv@Base 5.5.0
 _ZNK4Qt3D14QAspectManager10metaObjectEv@Base 5.5.0
 _ZNK4Qt3D14QAspectManager13changeArbiterEv@Base 5.5.0
 _ZNK4Qt3D14QAspectManager14serviceLocatorEv@Base 5.5.0
 _ZNK4Qt3D14QAspectManager4dataEv@Base 5.5.0
 _ZNK4Qt3D14QAspectManager7aspectsEv@Base 5.5.0
 _ZNK4Qt3D14QChangeArbiter10metaObjectEv@Base 5.5.0
 _ZNK4Qt3D14QChangeArbiter5sceneEv@Base 5.5.0
 _ZNK4Qt3D14QChangeArbiter7postmanEv@Base 5.5.0
 _ZNK4Qt3D15QAbstractAspect10aspectTypeEv@Base 5.5.0
 _ZNK4Qt3D15QAbstractAspect10jobManagerEv@Base 5.5.0
 _ZNK4Qt3D15QAbstractAspect10metaObjectEv@Base 5.5.0
 _ZNK4Qt3D15QAbstractAspect14getBackendNodeEPNS_5QNodeE@Base 5.5.0
 _ZNK4Qt3D15QAbstractAspect16clearBackendNodeEPNS_5QNodeE@Base 5.5.0
 _ZNK4Qt3D15QAbstractAspect17createBackendNodeEPNS_5QNodeE@Base 5.5.0
 _ZNK4Qt3D15QAbstractAspect8servicesEv@Base 5.5.0
 _ZNK4Qt3D15QAbstractBuffer4dataEv@Base 5.5.0
 _ZNK4Qt3D15QFrameAllocator13maxObjectSizeEv@Base 5.5.0
 _ZNK4Qt3D15QFrameAllocator15totalChunkCountEv@Base 5.5.0
 _ZNK4Qt3D15QFrameAllocator17allocatorPoolSizeEv@Base 5.5.0
 _ZNK4Qt3D15QScaleTransform10metaObjectEv@Base 5.5.0
 _ZNK4Qt3D15QScaleTransform15transformMatrixEv@Base 5.5.0
 _ZNK4Qt3D15QScaleTransform5scaleEv@Base 5.5.0
 _ZNK4Qt3D15QScaleTransform7scale3DEv@Base 5.5.0
 _ZNK4Qt3D15QServiceLocator12serviceCountEv@Base 5.5.0
 _ZNK4Qt3D16QLookAtTransform10metaObjectEv@Base 5.5.0
 _ZNK4Qt3D16QLookAtTransform10viewCenterEv@Base 5.5.0
 _ZNK4Qt3D16QLookAtTransform10viewVectorEv@Base 5.5.0
 _ZNK4Qt3D16QLookAtTransform15transformMatrixEv@Base 5.5.0
 _ZNK4Qt3D16QLookAtTransform8positionEv@Base 5.5.0
 _ZNK4Qt3D16QLookAtTransform8upVectorEv@Base 5.5.0
 _ZNK4Qt3D16QMatrixTransform10metaObjectEv@Base 5.5.0
 _ZNK4Qt3D16QMatrixTransform15transformMatrixEv@Base 5.5.0
 _ZNK4Qt3D16QMatrixTransform6matrixEv@Base 5.5.0
 _ZNK4Qt3D16QRotateTransform10metaObjectEv@Base 5.5.0
 _ZNK4Qt3D16QRotateTransform15transformMatrixEv@Base 5.5.0
 _ZNK4Qt3D16QRotateTransform4axisEv@Base 5.5.0
 _ZNK4Qt3D16QRotateTransform8angleDegEv@Base 5.5.0
 _ZNK4Qt3D16QRotateTransform8angleRadEv@Base 5.5.0
 _ZNK4Qt3D17QAspectJobManager10metaObjectEv@Base 5.5.0
 _ZNK4Qt3D18QAbstractAttribute10byteStrideEv@Base 5.5.0
 _ZNK4Qt3D18QAbstractAttribute4typeEv@Base 5.5.0
 _ZNK4Qt3D18QAbstractAttribute5countEv@Base 5.5.0
 _ZNK4Qt3D18QAbstractAttribute6bufferEv@Base 5.5.0
 _ZNK4Qt3D18QAbstractAttribute7divisorEv@Base 5.5.0
 _ZNK4Qt3D18QAbstractTransform10metaObjectEv@Base 5.5.0
 _ZNK4Qt3D19QTranslateTransform10metaObjectEv@Base 5.5.0
 _ZNK4Qt3D19QTranslateTransform11translationEv@Base 5.5.0
 _ZNK4Qt3D19QTranslateTransform15transformMatrixEv@Base 5.5.0
 _ZNK4Qt3D19QTranslateTransform2dxEv@Base 5.5.0
 _ZNK4Qt3D19QTranslateTransform2dyEv@Base 5.5.0
 _ZNK4Qt3D19QTranslateTransform2dzEv@Base 5.5.0
 _ZNK4Qt3D20QScenePropertyChange12propertyNameEv@Base 5.5.0
 _ZNK4Qt3D20QScenePropertyChange5valueEv@Base 5.5.0
 _ZNK4Qt3D24QAbstractServiceProvider11descriptionEv@Base 5.5.0
 _ZNK4Qt3D24QAbstractServiceProvider4typeEv@Base 5.5.0
 _ZNK4Qt3D27QBackendScenePropertyChange10targetNodeEv@Base 5.5.0
 _ZNK4Qt3D5QNode10metaObjectEv@Base 5.5.0
 _ZNK4Qt3D5QNode10parentNodeEv@Base 5.5.0
 _ZNK4Qt3D5QNode20notificationsBlockedEv@Base 5.5.0
 _ZNK4Qt3D5QNode2idEv@Base 5.5.0
 _ZNK4Qt3D5QNode5sceneEv@Base 5.5.0
 _ZNK4Qt3D6QRay3D11transformedERK10QMatrix4x4@Base 5.5.0
 _ZNK4Qt3D6QRay3D17projectedDistanceERK9QVector3D@Base 5.5.0
 _ZNK4Qt3D6QRay3D5pointEf@Base 5.5.0
 _ZNK4Qt3D6QRay3D6originEv@Base 5.5.0
 _ZNK4Qt3D6QRay3D7projectERK9QVector3D@Base 5.5.0
 _ZNK4Qt3D6QRay3D8containsERK9QVector3D@Base 5.5.0
 _ZNK4Qt3D6QRay3D8containsERKS0_@Base 5.5.0
 _ZNK4Qt3D6QRay3D8distanceERK9QVector3D@Base 5.5.0
 _ZNK4Qt3D6QRay3D9directionEv@Base 5.5.0
 _ZNK4Qt3D6QRay3DeqERKS0_@Base 5.5.0
 _ZNK4Qt3D6QRay3DneERKS0_@Base 5.5.0
 _ZNK4Qt3D6QScene10lookupNodeERKNS_7QNodeIdE@Base 5.5.0
 _ZNK4Qt3D6QScene17lookupObservablesERKNS_7QNodeIdE@Base 5.5.0
 _ZNK4Qt3D6QScene20entitiesForComponentERKNS_7QNodeIdE@Base 5.5.0
 _ZNK4Qt3D6QScene20nodeIdFromObservableEPNS_20QObservableInterfaceE@Base 5.5.0
 _ZNK4Qt3D6QScene6engineEv@Base 5.5.0
 _ZNK4Qt3D7QCamera10metaObjectEv@Base 5.5.0
 _ZNK4Qt3D7QCamera10viewCenterEv@Base 5.5.0
 _ZNK4Qt3D7QCamera11aspectRatioEv@Base 5.5.0
 _ZNK4Qt3D7QCamera11fieldOfViewEv@Base 5.5.0
 _ZNK4Qt3D7QCamera11panRotationEf@Base 5.5.0
 _ZNK4Qt3D7QCamera12rollRotationEf@Base 5.5.0
 _ZNK4Qt3D7QCamera12tiltRotationEf@Base 5.5.0
 _ZNK4Qt3D7QCamera14projectionTypeEv@Base 5.5.0
 _ZNK4Qt3D7QCamera16projectionMatrixEv@Base 5.5.0
 _ZNK4Qt3D7QCamera3topEv@Base 5.5.0
 _ZNK4Qt3D7QCamera4leftEv@Base 5.5.0
 _ZNK4Qt3D7QCamera4lensEv@Base 5.5.0
 _ZNK4Qt3D7QCamera5rightEv@Base 5.5.0
 _ZNK4Qt3D7QCamera6bottomEv@Base 5.5.0
 _ZNK4Qt3D7QCamera6lookAtEv@Base 5.5.0
 _ZNK4Qt3D7QCamera8farPlaneEv@Base 5.5.0
 _ZNK4Qt3D7QCamera8positionEv@Base 5.5.0
 _ZNK4Qt3D7QCamera8upVectorEv@Base 5.5.0
 _ZNK4Qt3D7QCamera9nearPlaneEv@Base 5.5.0
 _ZNK4Qt3D7QCamera9transformEv@Base 5.5.0
 _ZNK4Qt3D7QEntity10componentsEv@Base 5.5.0
 _ZNK4Qt3D7QEntity10metaObjectEv@Base 5.5.0
 _ZNK4Qt3D7QEntity12parentEntityEv@Base 5.5.0
 _ZTIN4Qt3D10QAspectJobE@Base 5.5.0
 _ZTIN4Qt3D10QComponentE@Base 5.5.0
 _ZTIN4Qt3D10QTransformE@Base 5.5.0
 _ZTIN4Qt3D11QCameraLensE@Base 5.5.0
 _ZTIN4Qt3D12QBackendNodeE@Base 5.5.0
 _ZTIN4Qt3D12QNodePrivateE@Base 5.5.0
 _ZTIN4Qt3D12QNodeVisitorE@Base 5.5.0
 _ZTIN4Qt3D12QSceneChangeE@Base 5.5.0
 _ZTIN4Qt3D13QAspectEngineE@Base 5.5.0
 _ZTIN4Qt3D14QAspectManagerE@Base 5.5.0
 _ZTIN4Qt3D14QCameraPrivateE@Base 5.5.0
 _ZTIN4Qt3D14QChangeArbiterE@Base 5.5.0
 _ZTIN4Qt3D14QEntityPrivateE@Base 5.5.0
 _ZTIN4Qt3D15QAbstractAspectE@Base 5.5.0
 _ZTIN4Qt3D15QAbstractBufferE@Base 5.5.0
 _ZTIN4Qt3D15QScaleTransformE@Base 5.5.0
 _ZTIN4Qt3D15QSceneInterfaceE@Base 5.5.0
 _ZTIN4Qt3D16QLookAtTransformE@Base 5.5.0
 _ZTIN4Qt3D16QMatrixTransformE@Base 5.5.0
 _ZTIN4Qt3D16QRotateTransformE@Base 5.5.0
 _ZTIN4Qt3D17QAspectJobManagerE@Base 5.5.0
 _ZTIN4Qt3D17QComponentPrivateE@Base 5.5.0
 _ZTIN4Qt3D18QAbstractAttributeE@Base 5.5.0
 _ZTIN4Qt3D18QAbstractTransformE@Base 5.5.0
 _ZTIN4Qt3D18QCameraLensPrivateE@Base 5.5.0
 _ZTIN4Qt3D18QObserverInterfaceE@Base 5.5.0
 _ZTIN4Qt3D19QBackendNodeFactoryE@Base 5.5.0
 _ZTIN4Qt3D19QBackendNodePrivateE@Base 5.5.0
 _ZTIN4Qt3D19QTranslateTransformE@Base 5.5.0
 _ZTIN4Qt3D20QObservableInterfaceE@Base 5.5.0
 _ZTIN4Qt3D20QScenePropertyChangeE@Base 5.5.0
 _ZTIN4Qt3D22QAbstractAspectPrivateE@Base 5.5.0
 _ZTIN4Qt3D23QSceneObserverInterfaceE@Base 5.5.0
 _ZTIN4Qt3D24QAbstractServiceProviderE@Base 5.5.0
 _ZTIN4Qt3D25QOpenGLInformationServiceE@Base 5.5.0
 _ZTIN4Qt3D25QSystemInformationServiceE@Base 5.5.0
 _ZTIN4Qt3D26QLockableObserverInterfaceE@Base 5.5.0
 _ZTIN4Qt3D27QBackendScenePropertyChangeE@Base 5.5.0
 _ZTIN4Qt3D5QNodeE@Base 5.5.0
 _ZTIN4Qt3D6QRay3DE@Base 5.5.0
 _ZTIN4Qt3D6QSceneE@Base 5.5.0
 _ZTIN4Qt3D7QCameraE@Base 5.5.0
 _ZTIN4Qt3D7QEntityE@Base 5.5.0
 _ZTSN4Qt3D10QAspectJobE@Base 5.5.0
 _ZTSN4Qt3D10QComponentE@Base 5.5.0
 _ZTSN4Qt3D10QTransformE@Base 5.5.0
 _ZTSN4Qt3D11QCameraLensE@Base 5.5.0
 _ZTSN4Qt3D12QBackendNodeE@Base 5.5.0
 _ZTSN4Qt3D12QNodePrivateE@Base 5.5.0
 _ZTSN4Qt3D12QNodeVisitorE@Base 5.5.0
 _ZTSN4Qt3D12QSceneChangeE@Base 5.5.0
 _ZTSN4Qt3D13QAspectEngineE@Base 5.5.0
 _ZTSN4Qt3D14QAspectManagerE@Base 5.5.0
 _ZTSN4Qt3D14QCameraPrivateE@Base 5.5.0
 _ZTSN4Qt3D14QChangeArbiterE@Base 5.5.0
 _ZTSN4Qt3D14QEntityPrivateE@Base 5.5.0
 _ZTSN4Qt3D15QAbstractAspectE@Base 5.5.0
 _ZTSN4Qt3D15QAbstractBufferE@Base 5.5.0
 _ZTSN4Qt3D15QScaleTransformE@Base 5.5.0
 _ZTSN4Qt3D15QSceneInterfaceE@Base 5.5.0
 _ZTSN4Qt3D16QLookAtTransformE@Base 5.5.0
 _ZTSN4Qt3D16QMatrixTransformE@Base 5.5.0
 _ZTSN4Qt3D16QRotateTransformE@Base 5.5.0
 _ZTSN4Qt3D17QAspectJobManagerE@Base 5.5.0
 _ZTSN4Qt3D17QComponentPrivateE@Base 5.5.0
 _ZTSN4Qt3D18QAbstractAttributeE@Base 5.5.0
 _ZTSN4Qt3D18QAbstractTransformE@Base 5.5.0
 _ZTSN4Qt3D18QCameraLensPrivateE@Base 5.5.0
 _ZTSN4Qt3D18QObserverInterfaceE@Base 5.5.0
 _ZTSN4Qt3D19QBackendNodeFactoryE@Base 5.5.0
 _ZTSN4Qt3D19QBackendNodePrivateE@Base 5.5.0
 _ZTSN4Qt3D19QTranslateTransformE@Base 5.5.0
 _ZTSN4Qt3D20QObservableInterfaceE@Base 5.5.0
 _ZTSN4Qt3D20QScenePropertyChangeE@Base 5.5.0
 _ZTSN4Qt3D22QAbstractAspectPrivateE@Base 5.5.0
 _ZTSN4Qt3D23QSceneObserverInterfaceE@Base 5.5.0
 _ZTSN4Qt3D24QAbstractServiceProviderE@Base 5.5.0
 _ZTSN4Qt3D25QOpenGLInformationServiceE@Base 5.5.0
 _ZTSN4Qt3D25QSystemInformationServiceE@Base 5.5.0
 _ZTSN4Qt3D26QLockableObserverInterfaceE@Base 5.5.0
 _ZTSN4Qt3D27QBackendScenePropertyChangeE@Base 5.5.0
 _ZTSN4Qt3D5QNodeE@Base 5.5.0
 _ZTSN4Qt3D6QRay3DE@Base 5.5.0
 _ZTSN4Qt3D6QSceneE@Base 5.5.0
 _ZTSN4Qt3D7QCameraE@Base 5.5.0
 _ZTSN4Qt3D7QEntityE@Base 5.5.0
 _ZTVN4Qt3D10QAspectJobE@Base 5.5.0
 _ZTVN4Qt3D10QComponentE@Base 5.5.0
 _ZTVN4Qt3D10QTransformE@Base 5.5.0
 _ZTVN4Qt3D11QCameraLensE@Base 5.5.0
 _ZTVN4Qt3D12QBackendNodeE@Base 5.5.0
 _ZTVN4Qt3D12QNodePrivateE@Base 5.5.0
 _ZTVN4Qt3D12QNodeVisitorE@Base 5.5.0
 _ZTVN4Qt3D12QSceneChangeE@Base 5.5.0
 _ZTVN4Qt3D13QAspectEngineE@Base 5.5.0
 _ZTVN4Qt3D14QAspectManagerE@Base 5.5.0
 _ZTVN4Qt3D14QCameraPrivateE@Base 5.5.0
 _ZTVN4Qt3D14QChangeArbiterE@Base 5.5.0
 _ZTVN4Qt3D14QEntityPrivateE@Base 5.5.0
 _ZTVN4Qt3D15QAbstractAspectE@Base 5.5.0
 _ZTVN4Qt3D15QAbstractBufferE@Base 5.5.0
 _ZTVN4Qt3D15QScaleTransformE@Base 5.5.0
 _ZTVN4Qt3D16QLookAtTransformE@Base 5.5.0
 _ZTVN4Qt3D16QMatrixTransformE@Base 5.5.0
 _ZTVN4Qt3D16QRotateTransformE@Base 5.5.0
 _ZTVN4Qt3D17QAspectJobManagerE@Base 5.5.0
 _ZTVN4Qt3D17QComponentPrivateE@Base 5.5.0
 _ZTVN4Qt3D18QAbstractAttributeE@Base 5.5.0
 _ZTVN4Qt3D18QAbstractTransformE@Base 5.5.0
 _ZTVN4Qt3D18QCameraLensPrivateE@Base 5.5.0
 _ZTVN4Qt3D18QObserverInterfaceE@Base 5.5.0
 _ZTVN4Qt3D19QBackendNodeFactoryE@Base 5.5.0
 _ZTVN4Qt3D19QBackendNodePrivateE@Base 5.5.0
 _ZTVN4Qt3D19QTranslateTransformE@Base 5.5.0
 _ZTVN4Qt3D20QObservableInterfaceE@Base 5.5.0
 _ZTVN4Qt3D20QScenePropertyChangeE@Base 5.5.0
 _ZTVN4Qt3D22QAbstractAspectPrivateE@Base 5.5.0
 _ZTVN4Qt3D23QSceneObserverInterfaceE@Base 5.5.0
 _ZTVN4Qt3D24QAbstractServiceProviderE@Base 5.5.0
 _ZTVN4Qt3D25QOpenGLInformationServiceE@Base 5.5.0
 _ZTVN4Qt3D25QSystemInformationServiceE@Base 5.5.0
 _ZTVN4Qt3D26QLockableObserverInterfaceE@Base 5.5.0
 _ZTVN4Qt3D27QBackendScenePropertyChangeE@Base 5.5.0
 _ZTVN4Qt3D5QNodeE@Base 5.5.0
 _ZTVN4Qt3D6QRay3DE@Base 5.5.0
 _ZTVN4Qt3D6QSceneE@Base 5.5.0
 _ZTVN4Qt3D7QCameraE@Base 5.5.0
 _ZTVN4Qt3D7QEntityE@Base 5.5.0
 (c++)"non-virtual thunk to Qt3D::QAbstractAspect::createBackendNode(Qt3D::QNode*) const@Base" 5.5.0
 (c++)"non-virtual thunk to Qt3D::QBackendNodePrivate::notifyObservers(QSharedPointer<Qt3D::QSceneChange> const&)@Base" 5.5.0
 (c++)"non-virtual thunk to Qt3D::QBackendNodePrivate::setArbiter(Qt3D::QLockableObserverInterface*)@Base" 5.5.0
 (c++)"non-virtual thunk to Qt3D::QChangeArbiter::sceneChangeEvent(QSharedPointer<Qt3D::QSceneChange> const&)@Base" 5.5.0
 (c++)"non-virtual thunk to Qt3D::QChangeArbiter::sceneChangeEventWithLock(QSharedPointer<Qt3D::QSceneChange> const&)@Base" 5.5.0
 (c++)"non-virtual thunk to Qt3D::QChangeArbiter::~QChangeArbiter()@Base" 5.5.0
 (c++)"non-virtual thunk to Qt3D::QNodePrivate::notifyObservers(QSharedPointer<Qt3D::QSceneChange> const&)@Base" 5.5.0
 (c++)"non-virtual thunk to Qt3D::QNodePrivate::setArbiter(Qt3D::QLockableObserverInterface*)@Base" 5.5.0
