# SymbolsHelper-Confirmed: 5.5.1 amd64
libQt53DLogic.so.5 libqt53dlogic5 #MINVER#
 _ZN4Qt3D12QLogicAspect10onShutdownEv@Base 5.5.1
 _ZN4Qt3D12QLogicAspect11qt_metacallEN11QMetaObject4CallEiPPv@Base 5.5.1
 _ZN4Qt3D12QLogicAspect11qt_metacastEPKc@Base 5.5.1
 _ZN4Qt3D12QLogicAspect12onInitializeERK4QMapI7QString8QVariantE@Base 5.5.1
 _ZN4Qt3D12QLogicAspect13jobsToExecuteEx@Base 5.5.1
 _ZN4Qt3D12QLogicAspect13setRootEntityEPNS_7QEntityE@Base 5.5.1
 _ZN4Qt3D12QLogicAspect14sceneNodeAddedER14QSharedPointerINS_12QSceneChangeEE@Base 5.5.1
 _ZN4Qt3D12QLogicAspect16sceneNodeRemovedER14QSharedPointerINS_12QSceneChangeEE@Base 5.5.1
 _ZN4Qt3D12QLogicAspect16staticMetaObjectE@Base 5.5.1
 _ZN4Qt3D12QLogicAspect20registerBackendTypesEv@Base 5.5.1
 _ZN4Qt3D12QLogicAspect9onCleanupEv@Base 5.5.1
 _ZN4Qt3D12QLogicAspect9onStartupEv@Base 5.5.1
 _ZN4Qt3D12QLogicAspect9visitNodeEPNS_5QNodeE@Base 5.5.1
 _ZN4Qt3D12QLogicAspectC1EP7QObject@Base 5.5.1
 _ZN4Qt3D12QLogicAspectC1ERNS_19QLogicAspectPrivateEP7QObject@Base 5.5.1
 _ZN4Qt3D12QLogicAspectC2EP7QObject@Base 5.5.1
 _ZN4Qt3D12QLogicAspectC2ERNS_19QLogicAspectPrivateEP7QObject@Base 5.5.1
 (optional=templinst)_ZN4Qt3D12QNodeVisitor16traverseChildrenINS0_21MemberFunctionFunctorINS_12QLogicAspectEPNS_5QNodeEEEEEvRT_@Base 5.5.1
 (optional=templinst)_ZN4Qt3D14QAspectFactory14functionHelperINS_12QLogicAspectEEEPNS_15QAbstractAspectEP7QObject@Base 5.5.1
 _ZN4Qt3D15QLogicComponent11frameUpdateEv@Base 5.5.1
 _ZN4Qt3D15QLogicComponent11qt_metacallEN11QMetaObject4CallEiPPv@Base 5.5.1
 _ZN4Qt3D15QLogicComponent11qt_metacastEPKc@Base 5.5.1
 _ZN4Qt3D15QLogicComponent13onFrameUpdateEv@Base 5.5.1
 _ZN4Qt3D15QLogicComponent16staticMetaObjectE@Base 5.5.1
 _ZN4Qt3D15QLogicComponentC1EPNS_5QNodeE@Base 5.5.1
 _ZN4Qt3D15QLogicComponentC1ERNS_22QLogicComponentPrivateEPNS_5QNodeE@Base 5.5.1
 _ZN4Qt3D15QLogicComponentC2EPNS_5QNodeE@Base 5.5.1
 _ZN4Qt3D15QLogicComponentC2ERNS_22QLogicComponentPrivateEPNS_5QNodeE@Base 5.5.1
 _ZN4Qt3D15QLogicComponentD0Ev@Base 5.5.1
 _ZN4Qt3D15QLogicComponentD1Ev@Base 5.5.1
 _ZN4Qt3D15QLogicComponentD2Ev@Base 5.5.1
 _ZNK4Qt3D12QLogicAspect10metaObjectEv@Base 5.5.1
 _ZNK4Qt3D15QLogicComponent10metaObjectEv@Base 5.5.1
 _ZTIN4Qt3D12QLogicAspectE@Base 5.5.1
 _ZTIN4Qt3D15QLogicComponentE@Base 5.5.1
 _ZTIN4Qt3D17QComponentPrivateE@Base 5.5.1
 _ZTIN4Qt3D19QBackendNodeFunctorE@Base 5.5.1
 _ZTIN4Qt3D22QAbstractAspectPrivateE@Base 5.5.1
 _ZTSN4Qt3D12QLogicAspectE@Base 5.5.1
 _ZTSN4Qt3D15QLogicComponentE@Base 5.5.1
 _ZTSN4Qt3D17QComponentPrivateE@Base 5.5.1
 _ZTSN4Qt3D19QBackendNodeFunctorE@Base 5.5.1
 _ZTSN4Qt3D22QAbstractAspectPrivateE@Base 5.5.1
 _ZTVN4Qt3D12QLogicAspectE@Base 5.5.1
 _ZTVN4Qt3D15QLogicComponentE@Base 5.5.1
 _ZTVN4Qt3D17QComponentPrivateE@Base 5.5.1
 _ZTVN4Qt3D22QAbstractAspectPrivateE@Base 5.5.1
 (c++)"non-virtual thunk to Qt3D::QLogicAspect::jobsToExecute(long long)@Base" 5.5.1
 (c++)"non-virtual thunk to Qt3D::QLogicAspect::sceneNodeAdded(QSharedPointer<Qt3D::QSceneChange>&)@Base" 5.5.1
 (c++)"non-virtual thunk to Qt3D::QLogicAspect::sceneNodeRemoved(QSharedPointer<Qt3D::QSceneChange>&)@Base" 5.5.1
